Certificate:
    Data:
        Version: 3 (0x2)
        Serial Number:
            be:03:f1:12:19:cb:dd:24
        Signature Algorithm: sha1WithRSAEncryption
        Issuer: CN=cert.flow-ca.info, O=Great Privacy Commitee, C=CH, ST=Bern, L=Stadt Bern
        Validity
            Not Before: Nov 11 22:38:19 2010 GMT
            Not After : Nov  8 22:38:19 2030 GMT
        Subject: CN=cert.flow-ca.info, O=Great Privacy Commitee, C=CH, ST=Bern, L=Stadt Bern
        Subject Public Key Info:
            Public Key Algorithm: rsaEncryption
            RSA Public Key: (4096 bit)
                Modulus (4096 bit):
                    00:bb:70:9f:14:67:62:06:39:7e:59:53:ed:15:48:
                    b0:74:9e:dd:d8:18:f9:bb:eb:ee:a6:46:00:b6:ba:
                    c8:fe:e8:68:89:c6:24:43:4e:ac:d4:f0:73:34:4c:
                    b9:f9:55:6a:03:b2:01:f9:4d:a0:f5:3f:cf:f6:73:
                    c2:53:a2:f0:1b:22:46:1c:e5:fb:88:57:a9:4c:db:
                    31:05:90:8a:11:98:ca:64:62:29:f0:5f:33:42:0d:
                    29:87:07:e4:9e:28:86:d8:fa:91:b1:8f:eb:62:09:
                    d5:0c:99:d3:83:dd:aa:69:4e:59:87:ce:36:89:42:
                    9b:6c:b5:7e:e0:7e:3a:e5:0a:73:e1:1e:08:2d:a0:
                    ec:f7:7b:24:3c:91:55:98:3f:8c:fa:1e:db:60:e3:
                    03:51:04:71:1f:c0:0a:4a:44:83:40:ca:a3:b2:7a:
                    9a:3b:f5:d4:3f:52:c9:13:76:25:b3:91:d3:33:ef:
                    9b:04:81:c7:39:4f:b7:26:dd:d0:39:7f:26:d2:83:
                    12:2b:cc:71:ae:94:09:73:3f:e1:91:e3:f4:30:fb:
                    2f:17:4d:9c:56:f2:42:2f:f3:c4:99:aa:99:d6:7d:
                    c6:4a:50:42:b3:cf:42:13:87:10:e7:08:b9:de:ff:
                    30:11:34:33:a4:5f:65:79:03:4c:2f:18:65:0e:b2:
                    2f:9f:7a:4e:4c:10:d9:cc:d1:5a:2a:19:f2:54:13:
                    27:0d:89:b7:aa:70:08:7b:47:fc:f6:cc:c5:0d:95:
                    f5:8e:1c:a1:d4:6c:57:82:4c:f0:b0:fc:a1:83:95:
                    54:f8:53:81:a9:3b:b7:f5:6e:1f:7b:5c:7a:db:bc:
                    fb:05:43:57:6b:48:ea:c3:5d:ea:a0:a2:1b:3d:86:
                    41:b4:d9:36:17:c7:2e:9c:da:38:65:15:59:00:07:
                    58:9e:b0:d5:c0:76:e4:39:1f:12:37:52:a6:77:0f:
                    0e:45:6a:bb:e4:8a:41:0e:06:3b:53:ca:9c:7f:f8:
                    4e:5b:78:e0:66:9f:00:97:4a:47:1e:f7:5d:33:e7:
                    2a:36:9a:e2:0c:5f:c3:b4:88:df:a4:3f:87:21:ce:
                    4f:e0:4f:a4:7c:43:52:78:a7:fd:0a:0f:a8:6d:95:
                    be:b8:8d:66:bf:9a:87:93:75:57:4f:00:d2:60:ea:
                    6e:e8:46:05:02:60:8a:06:d2:f7:5d:45:e7:8d:41:
                    63:df:ee:a1:96:0a:fc:d0:0a:a0:f7:cf:1f:9d:a5:
                    4b:ed:40:fc:bf:e1:62:6b:81:4a:09:14:52:c5:f2:
                    f1:6f:5f:5d:9e:67:bf:a0:00:4a:41:e2:4d:8a:98:
                    38:75:e4:2d:57:7e:d6:6e:fd:f5:a6:b3:af:38:6d:
                    f9:1f:99
                Exponent: 65537 (0x10001)
        X509v3 extensions:
            X509v3 Subject Key Identifier: 
                1A:19:47:31:74:B5:82:27:C3:51:4C:CB:E5:38:72:10:73:EB:AC:2B
            X509v3 Authority Key Identifier: 
                keyid:1A:19:47:31:74:B5:82:27:C3:51:4C:CB:E5:38:72:10:73:EB:AC:2B
                DirName:/CN=cert.flow-ca.info/O=Great Privacy Commitee/C=CH/ST=Bern/L=Stadt Bern
                serial:BE:03:F1:12:19:CB:DD:24

            X509v3 Basic Constraints: 
                CA:TRUE
    Signature Algorithm: sha1WithRSAEncryption
        71:16:2f:dc:f8:fa:80:78:c4:af:d4:11:48:cf:bc:85:9c:b8:
        c2:4d:6c:a5:11:1e:5e:b7:11:dd:e9:b9:ee:33:ff:d0:bd:d0:
        42:20:c3:af:9b:75:c5:e7:d7:8e:8b:2b:13:2a:31:b7:72:16:
        c3:fc:89:5d:58:c1:fc:41:20:ed:9c:c5:3b:00:ef:8c:48:0f:
        b0:34:c8:44:9e:16:a5:f2:70:92:05:90:dd:2e:a7:49:e6:1a:
        49:b2:01:39:33:6b:a9:4d:82:44:4a:19:75:a7:51:8d:74:78:
        27:21:ce:36:7c:9a:71:b5:c0:e8:d0:2a:e2:c7:2f:b2:bf:df:
        da:a9:2a:82:14:66:d4:df:51:6b:ff:dc:9f:87:9d:e0:84:b9:
        b6:ec:4b:1a:51:c0:64:6c:6d:62:3d:ea:4f:42:6f:f0:54:9e:
        ee:53:78:2c:fc:ab:ac:f1:ee:39:8e:54:20:9e:43:c1:80:df:
        4c:50:3d:02:7c:d4:45:d0:3c:44:87:3e:76:1a:00:08:1c:b0:
        c3:cc:3d:f5:73:39:9e:df:11:bf:65:ab:64:da:21:d3:37:c1:
        5c:76:9b:e0:df:bb:24:7f:92:5a:82:ec:49:fb:ce:f1:98:cc:
        7e:5e:6b:bd:65:66:d7:2d:a8:b6:fe:f1:0b:78:ee:4c:63:9f:
        49:84:33:97:ab:a4:01:ce:6c:4b:2a:97:62:37:21:60:81:11:
        c7:8c:e4:e5:aa:d1:10:ca:13:6c:27:8c:84:3b:15:6b:27:e8:
        d0:12:2f:5a:04:3c:e2:21:c2:ff:9f:3d:4b:eb:30:e8:88:69:
        98:7b:24:48:ae:4b:5e:52:e5:93:d1:42:84:87:12:a8:1e:43:
        1a:06:57:ee:b0:f7:bf:66:0c:23:2a:6b:98:b8:6d:81:86:03:
        d7:69:cf:e3:eb:05:84:6c:95:3c:ad:17:5b:c8:73:1f:08:5d:
        c0:8b:4f:e2:d5:69:df:76:37:46:da:3d:fc:34:f6:d9:bd:78:
        1c:1b:83:d5:5c:fd:5a:d9:8f:cd:1a:e4:57:b8:c5:d3:37:1a:
        2e:d1:a8:af:e5:7c:90:9c:e4:dc:57:4f:59:9a:c7:a3:0d:2d:
        f4:13:f2:2a:d3:19:1e:21:f7:7d:87:20:77:23:bb:2e:f1:b6:
        ee:b8:f1:4c:e1:37:62:1d:50:be:ac:f9:a0:06:48:43:10:43:
        73:40:53:82:b5:1e:e5:5a:e3:28:00:d2:03:3d:33:6e:c7:6a:
        bf:58:c3:29:bf:d8:9c:48:bb:a6:23:90:a1:91:1f:de:23:d2:
        1a:37:59:49:b1:a8:a3:89:e0:9b:52:c4:08:9b:2f:9f:f9:e3:
        6a:fb:3c:56:6e:a7:ca:ac
-----BEGIN CERTIFICATE-----
MIIGMzCCBBugAwIBAgIJAL4D8RIZy90kMA0GCSqGSIb3DQEBBQUAMG4xGjAYBgNV
BAMTEWNlcnQuZmxvdy1jYS5pbmZvMR8wHQYDVQQKExZHcmVhdCBQcml2YWN5IENv
bW1pdGVlMQswCQYDVQQGEwJDSDENMAsGA1UECBMEQmVybjETMBEGA1UEBxMKU3Rh
ZHQgQmVybjAeFw0xMDExMTEyMjM4MTlaFw0zMDExMDgyMjM4MTlaMG4xGjAYBgNV
BAMTEWNlcnQuZmxvdy1jYS5pbmZvMR8wHQYDVQQKExZHcmVhdCBQcml2YWN5IENv
bW1pdGVlMQswCQYDVQQGEwJDSDENMAsGA1UECBMEQmVybjETMBEGA1UEBxMKU3Rh
ZHQgQmVybjCCAiIwDQYJKoZIhvcNAQEBBQADggIPADCCAgoCggIBALtwnxRnYgY5
fllT7RVIsHSe3dgY+bvr7qZGALa6yP7oaInGJENOrNTwczRMuflVagOyAflNoPU/
z/ZzwlOi8BsiRhzl+4hXqUzbMQWQihGYymRiKfBfM0INKYcH5J4ohtj6kbGP62IJ
1QyZ04PdqmlOWYfONolCm2y1fuB+OuUKc+EeCC2g7Pd7JDyRVZg/jPoe22DjA1EE
cR/ACkpEg0DKo7J6mjv11D9SyRN2JbOR0zPvmwSBxzlPtybd0Dl/JtKDEivMca6U
CXM/4ZHj9DD7LxdNnFbyQi/zxJmqmdZ9xkpQQrPPQhOHEOcIud7/MBE0M6RfZXkD
TC8YZQ6yL596TkwQ2czRWioZ8lQTJw2Jt6pwCHtH/PbMxQ2V9Y4codRsV4JM8LD8
oYOVVPhTgak7t/VuH3tcetu8+wVDV2tI6sNd6qCiGz2GQbTZNhfHLpzaOGUVWQAH
WJ6w1cB25DkfEjdSpncPDkVqu+SKQQ4GO1PKnH/4Tlt44GafAJdKRx73XTPnKjaa
4gxfw7SI36Q/hyHOT+BPpHxDUnin/QoPqG2VvriNZr+ah5N1V08A0mDqbuhGBQJg
igbS911F541BY9/uoZYK/NAKoPfPH52lS+1A/L/hYmuBSgkUUsXy8W9fXZ5nv6AA
SkHiTYqYOHXkLVd+1m799aazrzht+R+ZAgMBAAGjgdMwgdAwHQYDVR0OBBYEFBoZ
RzF0tYInw1FMy+U4chBz66wrMIGgBgNVHSMEgZgwgZWAFBoZRzF0tYInw1FMy+U4
chBz66wroXKkcDBuMRowGAYDVQQDExFjZXJ0LmZsb3ctY2EuaW5mbzEfMB0GA1UE
ChMWR3JlYXQgUHJpdmFjeSBDb21taXRlZTELMAkGA1UEBhMCQ0gxDTALBgNVBAgT
BEJlcm4xEzARBgNVBAcTClN0YWR0IEJlcm6CCQC+A/ESGcvdJDAMBgNVHRMEBTAD
AQH/MA0GCSqGSIb3DQEBBQUAA4ICAQBxFi/c+PqAeMSv1BFIz7yFnLjCTWylER5e
txHd6bnuM//QvdBCIMOvm3XF59eOiysTKjG3chbD/IldWMH8QSDtnMU7AO+MSA+w
NMhEnhal8nCSBZDdLqdJ5hpJsgE5M2upTYJEShl1p1GNdHgnIc42fJpxtcDo0Cri
xy+yv9/aqSqCFGbU31Fr/9yfh53ghLm27EsaUcBkbG1iPepPQm/wVJ7uU3gs/Kus
8e45jlQgnkPBgN9MUD0CfNRF0DxEhz52GgAIHLDDzD31czme3xG/Zatk2iHTN8Fc
dpvg37skf5JaguxJ+87xmMx+Xmu9ZWbXLai2/vELeO5MY59JhDOXq6QBzmxLKpdi
NyFggRHHjOTlqtEQyhNsJ4yEOxVrJ+jQEi9aBDziIcL/nz1L6zDoiGmYeyRIrkte
UuWT0UKEhxKoHkMaBlfusPe/ZgwjKmuYuG2BhgPXac/j6wWEbJU8rRdbyHMfCF3A
i0/i1WnfdjdG2j38NPbZvXgcG4PVXP1a2Y/NGuRXuMXTNxou0aiv5XyQnOTcV09Z
msejDS30E/Iq0xkeIfd9hyB3I7su8bbuuPFM4TdiHVC+rPmgBkhDEENzQFOCtR7l
WuMoANIDPTNux2q/WMMpv9icSLumI5ChkR/eI9IaN1lJsaijieCbUsQImy+f+eNq
+zxWbqfKrA==
-----END CERTIFICATE-----
Certificate:
    Data:
        Version: 3 (0x2)
        Serial Number: 100 (0x64)
        Signature Algorithm: sha1WithRSAEncryption
        Issuer: CN=cert.flow-ca.info, O=Great Privacy Commitee, C=CH, ST=Bern, L=Stadt Bern
        Validity
            Not Before: Nov 11 22:38:20 2010 GMT
            Not After : Nov  6 22:38:20 2030 GMT
        Subject: CN=Intermediate Server CA, O=Great Privacy Server Management, C=CH, ST=Bern, L=Stadt Bern
        Subject Public Key Info:
            Public Key Algorithm: rsaEncryption
            RSA Public Key: (4096 bit)
                Modulus (4096 bit):
                    00:e4:69:b9:49:39:99:a8:13:09:8d:1b:e8:49:51:
                    e7:f2:18:c2:c3:99:73:3f:a3:bb:59:e3:74:12:b2:
                    70:f6:e4:d2:8e:22:50:be:26:49:b6:5c:11:f6:c2:
                    34:ce:8f:3c:84:44:8e:65:86:ae:c5:eb:18:a4:95:
                    b4:fc:9c:e1:fa:76:ee:44:d0:aa:1c:c4:5e:87:ac:
                    6a:03:f5:bb:63:a0:ac:25:8a:1d:d9:eb:c3:da:48:
                    e0:6f:0b:89:73:39:04:5e:6c:27:e4:43:34:46:bc:
                    4b:d4:06:1f:9a:7e:40:b7:d6:ba:64:c4:38:04:93:
                    4c:84:e6:13:48:ce:aa:a1:b6:95:d9:13:23:1f:b2:
                    df:bf:6d:4c:78:ec:97:48:70:8f:a2:2d:a5:71:12:
                    d6:ff:b6:55:bd:21:ff:84:15:bb:f6:71:19:81:47:
                    c6:2b:88:d4:1e:e0:77:04:9b:64:0c:f3:57:40:1d:
                    06:9f:75:78:94:a6:55:d1:71:c5:ff:78:a7:5d:34:
                    e7:46:7b:a1:d3:41:3d:97:7b:50:21:2f:16:cb:4f:
                    70:77:c4:77:1a:12:a5:a7:c9:d4:10:85:74:c6:f0:
                    06:35:fc:41:09:86:61:c3:8d:a3:69:90:30:b9:c7:
                    26:10:9a:11:e6:b7:1b:c1:a4:74:03:7e:30:a4:fc:
                    60:c3:01:5d:cf:5a:6f:e7:db:ba:28:59:1b:78:a1:
                    ce:69:58:8b:71:09:c8:5b:be:f9:fe:32:24:ee:19:
                    1f:82:e9:1d:a5:8b:04:17:e7:2c:2d:82:e5:55:33:
                    59:a8:db:44:ba:62:6a:70:d6:a6:fa:9e:71:fb:37:
                    1b:da:16:8b:07:7c:fe:6d:4c:1a:61:e5:4d:08:92:
                    0c:37:75:58:b0:93:b1:e0:e0:c1:37:de:97:7d:1a:
                    07:77:fc:eb:a8:00:51:9e:29:79:33:92:1f:07:61:
                    ee:08:d4:8f:71:43:16:0c:5d:28:a9:f9:27:63:23:
                    de:74:98:4a:06:79:fb:a3:03:5c:ef:4e:93:18:3f:
                    8b:2c:14:38:4c:b7:77:b4:7d:8a:5c:21:70:e8:70:
                    69:62:0b:b2:1d:aa:60:99:81:af:7c:90:9b:28:9c:
                    01:60:c4:99:e0:e3:90:aa:67:a2:ed:86:e2:c8:89:
                    52:61:88:9d:53:6b:13:32:6c:17:1b:b7:38:d8:47:
                    83:15:ce:cc:b7:dd:5a:2a:2b:b1:89:34:c0:6f:72:
                    31:b4:60:dc:b1:0e:f6:39:f7:98:bd:6f:5c:78:98:
                    96:dd:bf:64:03:52:7e:01:e4:83:ac:5a:90:46:32:
                    28:87:4f:3c:9f:1b:91:a5:93:fe:2a:05:0a:8e:c5:
                    14:8b:b3
                Exponent: 65537 (0x10001)
        X509v3 extensions:
            X509v3 Subject Key Identifier: 
                D8:49:92:77:D1:86:F0:45:CC:7D:50:BF:61:FC:24:88:0C:DF:1F:B2
            X509v3 Authority Key Identifier: 
                keyid:1A:19:47:31:74:B5:82:27:C3:51:4C:CB:E5:38:72:10:73:EB:AC:2B
                DirName:/CN=cert.flow-ca.info/O=Great Privacy Commitee/C=CH/ST=Bern/L=Stadt Bern
                serial:BE:03:F1:12:19:CB:DD:24

            X509v3 Basic Constraints: 
                CA:TRUE
    Signature Algorithm: sha1WithRSAEncryption
        77:fa:08:da:1d:a4:e4:4b:6c:df:99:53:fb:50:31:6e:9b:fd:
        ec:66:49:b5:07:6e:1b:57:8a:7f:d7:fc:1f:69:4f:ee:4d:38:
        b7:25:f4:a3:e8:4e:9d:27:c3:1d:c7:17:f0:f6:40:b5:09:c1:
        23:cc:c9:91:43:55:d0:a7:84:82:05:d7:a8:9d:f7:62:ab:8c:
        f8:33:60:9b:72:38:1e:6e:94:db:69:f3:13:5e:93:8e:6d:77:
        28:98:91:1f:f7:be:7a:ea:3d:a3:8c:98:0b:51:06:c5:08:39:
        61:3a:d3:94:6c:4e:27:6a:72:58:d7:ae:b5:97:25:6e:55:e1:
        f1:d2:d1:06:77:9b:98:bf:8e:8c:92:61:d4:7e:31:5c:d6:4e:
        4c:bb:8b:e9:c5:f0:10:f3:3f:0e:c0:8f:99:36:f2:ef:ae:4f:
        e5:be:1f:cc:f0:d1:5e:ee:e4:f8:fb:a1:3b:f2:57:b6:a0:18:
        e6:48:0c:ba:96:1f:83:94:e7:8a:4b:f2:d7:7c:34:92:1b:2a:
        de:4a:e3:c8:fe:0b:00:32:4d:88:42:c3:cc:68:88:ec:7d:8a:
        39:9a:cb:0b:78:ab:df:6e:0a:4a:06:3a:49:e4:31:13:0d:d3:
        1c:49:77:1f:88:d6:6a:84:2a:c4:a5:96:65:05:f1:ac:19:d4:
        00:47:05:4f:29:84:ac:2d:dc:29:86:31:a4:8a:29:77:61:bb:
        4b:74:aa:b8:95:e2:93:40:90:08:02:dd:bb:24:88:fe:a6:7f:
        9f:bf:c8:b8:76:7e:e0:47:cb:75:70:bb:19:4a:6c:db:cc:a7:
        09:b1:6c:83:eb:cd:01:0e:0d:58:aa:df:15:a2:45:2f:cf:99:
        52:71:f2:cf:27:14:81:f9:ec:5e:9a:56:22:84:00:59:bb:f5:
        68:fd:92:6e:e9:c7:3d:1b:12:f9:dc:d4:f5:cd:d7:64:79:01:
        95:1f:eb:6a:bd:a2:7b:02:81:fa:c7:d6:ff:21:30:a9:c5:ff:
        10:08:81:85:58:67:50:45:5b:66:be:58:fc:07:3e:1a:db:99:
        0f:95:19:e1:11:7a:1f:7c:2b:1d:20:27:e8:6b:9a:75:41:04:
        cd:b7:cc:de:b0:5e:bd:82:08:02:4c:5a:cd:b5:69:94:07:17:
        78:ea:57:ff:a9:c5:bf:79:d6:a4:2e:db:1f:05:e1:6f:df:c3:
        35:18:3a:e3:7d:fd:55:a7:62:3e:6d:69:d2:96:9e:3e:e3:ea:
        e1:58:47:83:54:dc:7a:be:ad:da:dc:ab:ea:8d:ec:5e:ef:1b:
        58:b1:cf:f6:36:b8:20:d8:fb:98:50:15:0f:b8:d1:0f:7b:8a:
        c0:9e:d2:c9:fe:2a:f9:d7
-----BEGIN CERTIFICATE-----
MIIGOTCCBCGgAwIBAgIBZDANBgkqhkiG9w0BAQUFADBuMRowGAYDVQQDExFjZXJ0
LmZsb3ctY2EuaW5mbzEfMB0GA1UEChMWR3JlYXQgUHJpdmFjeSBDb21taXRlZTEL
MAkGA1UEBhMCQ0gxDTALBgNVBAgTBEJlcm4xEzARBgNVBAcTClN0YWR0IEJlcm4w
HhcNMTAxMTExMjIzODIwWhcNMzAxMTA2MjIzODIwWjB8MR8wHQYDVQQDExZJbnRl
cm1lZGlhdGUgU2VydmVyIENBMSgwJgYDVQQKEx9HcmVhdCBQcml2YWN5IFNlcnZl
ciBNYW5hZ2VtZW50MQswCQYDVQQGEwJDSDENMAsGA1UECBMEQmVybjETMBEGA1UE
BxMKU3RhZHQgQmVybjCCAiIwDQYJKoZIhvcNAQEBBQADggIPADCCAgoCggIBAORp
uUk5magTCY0b6ElR5/IYwsOZcz+ju1njdBKycPbk0o4iUL4mSbZcEfbCNM6PPIRE
jmWGrsXrGKSVtPyc4fp27kTQqhzEXoesagP1u2OgrCWKHdnrw9pI4G8LiXM5BF5s
J+RDNEa8S9QGH5p+QLfWumTEOASTTITmE0jOqqG2ldkTIx+y379tTHjsl0hwj6It
pXES1v+2Vb0h/4QVu/ZxGYFHxiuI1B7gdwSbZAzzV0AdBp91eJSmVdFxxf94p100
50Z7odNBPZd7UCEvFstPcHfEdxoSpafJ1BCFdMbwBjX8QQmGYcONo2mQMLnHJhCa
Eea3G8GkdAN+MKT8YMMBXc9ab+fbuihZG3ihzmlYi3EJyFu++f4yJO4ZH4LpHaWL
BBfnLC2C5VUzWajbRLpianDWpvqecfs3G9oWiwd8/m1MGmHlTQiSDDd1WLCTseDg
wTfel30aB3f866gAUZ4peTOSHwdh7gjUj3FDFgxdKKn5J2Mj3nSYSgZ5+6MDXO9O
kxg/iywUOEy3d7R9ilwhcOhwaWILsh2qYJmBr3yQmyicAWDEmeDjkKpnou2G4siJ
UmGInVNrEzJsFxu3ONhHgxXOzLfdWiorsYk0wG9yMbRg3LEO9jn3mL1vXHiYlt2/
ZANSfgHkg6xakEYyKIdPPJ8bkaWT/ioFCo7FFIuzAgMBAAGjgdMwgdAwHQYDVR0O
BBYEFNhJknfRhvBFzH1Qv2H8JIgM3x+yMIGgBgNVHSMEgZgwgZWAFBoZRzF0tYIn
w1FMy+U4chBz66wroXKkcDBuMRowGAYDVQQDExFjZXJ0LmZsb3ctY2EuaW5mbzEf
MB0GA1UEChMWR3JlYXQgUHJpdmFjeSBDb21taXRlZTELMAkGA1UEBhMCQ0gxDTAL
BgNVBAgTBEJlcm4xEzARBgNVBAcTClN0YWR0IEJlcm6CCQC+A/ESGcvdJDAMBgNV
HRMEBTADAQH/MA0GCSqGSIb3DQEBBQUAA4ICAQB3+gjaHaTkS2zfmVP7UDFum/3s
Zkm1B24bV4p/1/wfaU/uTTi3JfSj6E6dJ8Mdxxfw9kC1CcEjzMmRQ1XQp4SCBdeo
nfdiq4z4M2CbcjgebpTbafMTXpOObXcomJEf97566j2jjJgLUQbFCDlhOtOUbE4n
anJY1661lyVuVeHx0tEGd5uYv46MkmHUfjFc1k5Mu4vpxfAQ8z8OwI+ZNvLvrk/l
vh/M8NFe7uT4+6E78le2oBjmSAy6lh+DlOeKS/LXfDSSGyreSuPI/gsAMk2IQsPM
aIjsfYo5mssLeKvfbgpKBjpJ5DETDdMcSXcfiNZqhCrEpZZlBfGsGdQARwVPKYSs
LdwphjGkiil3YbtLdKq4leKTQJAIAt27JIj+pn+fv8i4dn7gR8t1cLsZSmzbzKcJ
sWyD680BDg1Yqt8VokUvz5lScfLPJxSB+exemlYihABZu/Vo/ZJu6cc9GxL53NT1
zddkeQGVH+tqvaJ7AoH6x9b/ITCpxf8QCIGFWGdQRVtmvlj8Bz4a25kPlRnhEXof
fCsdICfoa5p1QQTNt8zesF69gggCTFrNtWmUBxd46lf/qcW/edakLtsfBeFv38M1
GDrjff1Vp2I+bWnSlp4+4+rhWEeDVNx6vq3a3Kvqjexe7xtYsc/2Nrgg2PuYUBUP
uNEPe4rAntLJ/ir51w==
-----END CERTIFICATE-----
