Certificate:
    Data:
        Version: 3 (0x2)
        Serial Number:
            9a:77:e4:a1:61:42:fe:9d
        Signature Algorithm: sha1WithRSAEncryption
        Issuer: C=CH, ST=St.Gallen, CN=flow.example.ch/emailAddress=manfred@morgner.com
        Validity
            Not Before: Nov  7 21:06:30 2010 GMT
            Not After : Nov  3 21:06:30 2030 GMT
        Subject: C=CH, ST=St.Gallen, CN=flow.example.ch/emailAddress=manfred@morgner.com
        Subject Public Key Info:
            Public Key Algorithm: rsaEncryption
            RSA Public Key: (4096 bit)
                Modulus (4096 bit):
                    00:d3:02:c9:1b:a4:d9:4e:46:28:18:c4:5d:ab:55:
                    28:21:77:63:77:55:fc:bd:b4:46:d4:b6:f9:24:57:
                    6c:c7:98:d0:14:10:52:43:ef:eb:46:2a:32:56:7f:
                    7e:eb:d6:5c:b5:9b:43:44:08:a6:4b:0a:33:48:ff:
                    d2:d9:ca:72:bc:f5:94:13:63:89:c3:d1:29:99:76:
                    f0:44:a6:d8:5e:3b:27:6f:d3:8a:28:c3:71:ba:6e:
                    c0:a3:21:ed:87:7d:62:32:58:ca:f2:73:38:d8:d3:
                    37:8a:bc:88:1d:ca:8f:5f:53:4b:ed:6d:87:ff:b7:
                    4d:d4:42:61:12:9d:1f:37:bb:bd:18:ba:ef:8c:d2:
                    9d:7c:e9:b1:73:69:f3:51:cf:6b:e6:68:80:98:a3:
                    c3:9f:e9:04:3f:09:db:9f:e4:a9:0d:9e:5e:d9:3b:
                    44:6f:db:6c:0b:a2:ff:c5:f1:3f:c3:5e:e0:ad:28:
                    ca:a1:4b:25:88:e5:a7:7c:a2:ff:79:eb:e8:78:1c:
                    0a:6b:60:9d:9b:6b:a1:e4:ef:d8:e7:f6:a3:f2:a5:
                    b0:d3:d7:b1:cf:00:3e:39:04:81:cb:23:0e:3f:d6:
                    1c:fd:78:a6:95:de:4d:bb:c8:8b:ff:ce:49:2f:64:
                    38:11:d0:3f:f8:ae:c0:bc:8e:59:c5:e5:62:6a:1d:
                    10:3a:bd:30:ba:e1:15:58:cb:93:6a:73:c2:8b:44:
                    1f:a3:0f:8d:89:bb:08:28:b4:09:7f:4c:3b:e1:9d:
                    87:b4:2a:08:a6:82:1e:56:f7:4a:2a:57:b0:5c:8f:
                    31:21:b2:3a:f5:aa:d0:da:b0:8d:cd:26:5a:ec:c3:
                    ce:01:f9:a6:8e:cf:a5:ef:92:1c:86:1a:1c:8e:5a:
                    68:0a:c1:7a:f8:da:ca:46:4d:b2:7a:be:4f:62:b0:
                    66:51:3a:9b:ac:fd:22:d7:87:2a:28:5a:68:b5:79:
                    e8:9e:a8:ec:4c:48:dd:a5:c3:e6:ac:d4:f7:69:75:
                    c7:dd:5b:96:2d:8a:71:6e:af:0d:05:19:33:ad:43:
                    20:2f:f3:1e:81:27:2d:82:db:e6:4d:ab:be:6c:0a:
                    e8:74:68:ad:19:d3:4f:a9:fd:aa:ab:22:f8:11:5a:
                    43:7a:d8:45:ee:c7:1c:af:42:54:43:92:c6:93:03:
                    fe:46:22:1e:60:66:d2:9f:4c:3c:2b:ac:39:38:e5:
                    1c:7e:ae:db:9b:57:af:d7:85:85:71:62:22:7a:b7:
                    e1:b0:b4:ca:62:88:46:17:0b:05:1e:af:2a:93:bd:
                    2e:2e:5c:dd:80:eb:b7:b8:2e:9f:15:f8:1f:bc:ca:
                    10:bc:2c:34:fe:ff:70:96:3b:c8:fa:1c:99:88:41:
                    ff:ff:a3
                Exponent: 65537 (0x10001)
        X509v3 extensions:
            X509v3 Subject Key Identifier: 
                F1:8D:26:F6:7F:AB:60:70:98:B3:68:80:95:70:C6:8A:C5:E6:B2:D8
            X509v3 Authority Key Identifier: 
                keyid:F1:8D:26:F6:7F:AB:60:70:98:B3:68:80:95:70:C6:8A:C5:E6:B2:D8
                DirName:/C=CH/ST=St.Gallen/CN=flow.example.ch/emailAddress=manfred@morgner.com
                serial:9A:77:E4:A1:61:42:FE:9D

            X509v3 Basic Constraints: 
                CA:TRUE
    Signature Algorithm: sha1WithRSAEncryption
        62:06:57:86:e2:0d:71:78:d3:58:f5:e6:5c:ea:8b:25:53:3f:
        cb:52:63:40:1d:09:1d:b0:d2:b6:0c:10:a6:a2:f0:6b:f6:97:
        8d:d5:76:e6:8a:16:7c:bc:1a:d2:b2:82:34:95:cd:36:61:a8:
        41:03:d5:2d:ff:a9:b8:b7:62:1b:06:bd:a1:74:d4:e1:7d:d0:
        29:53:cd:86:6c:98:b3:74:4a:ec:20:15:be:88:fc:d2:3b:da:
        ba:2d:6e:42:45:e7:89:c5:d7:ae:e7:49:df:aa:88:12:35:8e:
        7f:c8:35:7f:44:dc:46:3b:a5:15:95:a2:96:ad:3e:ec:e4:53:
        fa:b7:6d:10:13:93:57:c5:d8:3c:94:e5:b8:47:33:fd:5f:ca:
        54:e4:82:8b:f3:b6:13:cf:33:11:7d:42:24:28:5f:1a:35:43:
        a8:0b:fe:c9:97:d4:6c:44:3c:1f:83:2c:2f:12:54:c7:98:03:
        03:07:a3:e8:3d:98:84:d9:f1:7b:97:12:94:cd:7c:4d:23:5e:
        07:e3:df:6b:59:48:43:e0:e0:95:ed:c4:79:cd:74:d3:54:87:
        56:d3:82:b4:d9:07:fa:80:62:b7:a5:10:f6:47:86:06:c4:03:
        9a:32:bd:46:ee:28:d1:62:90:e8:52:64:5a:18:ab:a2:b9:09:
        bb:05:96:a9:d7:20:76:80:26:e0:4d:00:74:4c:0d:27:8f:0e:
        3e:f2:c7:0d:9b:8d:7a:26:bd:c4:32:5f:37:f3:fb:be:99:9a:
        1d:56:2d:7d:de:26:30:4a:67:6b:14:85:29:ed:2b:65:4b:76:
        17:f7:f7:58:23:b5:4c:3c:cd:ae:76:19:aa:54:a8:70:1d:04:
        aa:86:fe:89:5e:89:2d:6c:9d:57:1a:3a:dc:8f:e0:41:0a:b2:
        2c:13:7e:6b:4d:b2:5e:9b:9c:e5:71:2b:b5:bd:c4:8b:a0:1c:
        fe:1d:3a:ed:55:0c:88:27:36:ca:a7:b2:14:6e:d6:f5:6c:66:
        0b:6c:a2:c9:9c:ac:ea:33:05:63:88:75:43:43:8d:ca:36:6e:
        d1:8e:40:13:79:d6:98:5f:c7:4e:31:b4:c5:3e:27:17:42:d2:
        03:31:94:32:8b:34:30:12:40:de:0a:73:7f:ae:18:2b:d8:d6:
        9e:3b:62:b3:72:14:9c:1a:68:13:9c:ec:41:06:2a:e9:5c:23:
        56:29:56:e2:bb:b3:06:11:12:dd:e2:18:38:4f:cc:ca:1f:7c:
        cc:e0:b5:44:f1:ed:a3:38:1b:e6:45:6d:cb:20:f0:f0:36:7a:
        18:2c:26:46:97:46:eb:b5:e4:da:c1:ef:89:94:20:67:50:a0:
        31:53:ff:35:c7:d3:f3:e4
-----BEGIN CERTIFICATE-----
MIIGBjCCA+6gAwIBAgIJAJp35KFhQv6dMA0GCSqGSIb3DQEBBQUAMF8xCzAJBgNV
BAYTAkNIMRIwEAYDVQQIEwlTdC5HYWxsZW4xGDAWBgNVBAMTD2Zsb3cuZXhhbXBs
ZS5jaDEiMCAGCSqGSIb3DQEJARYTbWFuZnJlZEBtb3JnbmVyLmNvbTAeFw0xMDEx
MDcyMTA2MzBaFw0zMDExMDMyMTA2MzBaMF8xCzAJBgNVBAYTAkNIMRIwEAYDVQQI
EwlTdC5HYWxsZW4xGDAWBgNVBAMTD2Zsb3cuZXhhbXBsZS5jaDEiMCAGCSqGSIb3
DQEJARYTbWFuZnJlZEBtb3JnbmVyLmNvbTCCAiIwDQYJKoZIhvcNAQEBBQADggIP
ADCCAgoCggIBANMCyRuk2U5GKBjEXatVKCF3Y3dV/L20RtS2+SRXbMeY0BQQUkPv
60YqMlZ/fuvWXLWbQ0QIpksKM0j/0tnKcrz1lBNjicPRKZl28ESm2F47J2/TiijD
cbpuwKMh7Yd9YjJYyvJzONjTN4q8iB3Kj19TS+1th/+3TdRCYRKdHze7vRi674zS
nXzpsXNp81HPa+ZogJijw5/pBD8J25/kqQ2eXtk7RG/bbAui/8XxP8Ne4K0oyqFL
JYjlp3yi/3nr6HgcCmtgnZtroeTv2Of2o/KlsNPXsc8APjkEgcsjDj/WHP14ppXe
TbvIi//OSS9kOBHQP/iuwLyOWcXlYmodEDq9MLrhFVjLk2pzwotEH6MPjYm7CCi0
CX9MO+Gdh7QqCKaCHlb3SipXsFyPMSGyOvWq0Nqwjc0mWuzDzgH5po7Ppe+SHIYa
HI5aaArBevjaykZNsnq+T2KwZlE6m6z9IteHKihaaLV56J6o7ExI3aXD5qzU92l1
x91bli2KcW6vDQUZM61DIC/zHoEnLYLb5k2rvmwK6HRorRnTT6n9qqsi+BFaQ3rY
Re7HHK9CVEOSxpMD/kYiHmBm0p9MPCusOTjlHH6u25tXr9eFhXFiInq34bC0ymKI
RhcLBR6vKpO9Li5c3YDrt7gunxX4H7zKELwsNP7/cJY7yPocmYhB//+jAgMBAAGj
gcQwgcEwHQYDVR0OBBYEFPGNJvZ/q2BwmLNogJVwxorF5rLYMIGRBgNVHSMEgYkw
gYaAFPGNJvZ/q2BwmLNogJVwxorF5rLYoWOkYTBfMQswCQYDVQQGEwJDSDESMBAG
A1UECBMJU3QuR2FsbGVuMRgwFgYDVQQDEw9mbG93LmV4YW1wbGUuY2gxIjAgBgkq
hkiG9w0BCQEWE21hbmZyZWRAbW9yZ25lci5jb22CCQCad+ShYUL+nTAMBgNVHRME
BTADAQH/MA0GCSqGSIb3DQEBBQUAA4ICAQBiBleG4g1xeNNY9eZc6oslUz/LUmNA
HQkdsNK2DBCmovBr9peN1XbmihZ8vBrSsoI0lc02YahBA9Ut/6m4t2IbBr2hdNTh
fdApU82GbJizdErsIBW+iPzSO9q6LW5CReeJxdeu50nfqogSNY5/yDV/RNxGO6UV
laKWrT7s5FP6t20QE5NXxdg8lOW4RzP9X8pU5IKL87YTzzMRfUIkKF8aNUOoC/7J
l9RsRDwfgywvElTHmAMDB6PoPZiE2fF7lxKUzXxNI14H499rWUhD4OCV7cR5zXTT
VIdW04K02Qf6gGK3pRD2R4YGxAOaMr1G7ijRYpDoUmRaGKuiuQm7BZap1yB2gCbg
TQB0TA0njw4+8scNm416Jr3EMl838/u+mZodVi193iYwSmdrFIUp7StlS3YX9/dY
I7VMPM2udhmqVKhwHQSqhv6JXoktbJ1XGjrcj+BBCrIsE35rTbJem5zlcSu1vcSL
oBz+HTrtVQyIJzbKp7IUbtb1bGYLbKLJnKzqMwVjiHVDQ43KNm7RjkATedaYX8dO
MbTFPicXQtIDMZQyizQwEkDeCnN/rhgr2NaeO2KzchScGmgTnOxBBirpXCNWKVbi
u7MGERLd4hg4T8zKH3zM4LVE8e2jOBvmRW3LIPDwNnoYLCZGl0brteTawe+JlCBn
UKAxU/81x9Pz5A==
-----END CERTIFICATE-----
Certificate:
    Data:
        Version: 1 (0x0)
        Serial Number: 1 (0x1)
        Signature Algorithm: sha1WithRSAEncryption
        Issuer: C=CH, ST=St.Gallen, CN=flow.example.ch/emailAddress=manfred@morgner.com
        Validity
            Not Before: Nov  7 21:14:15 2010 GMT
            Not After : Nov  2 21:14:15 2030 GMT
        Subject: C=CH, ST=St.Gallen, CN=flow.example.ch intermediate server CA/emailAddress=manfred@morgner.com
        Subject Public Key Info:
            Public Key Algorithm: rsaEncryption
            RSA Public Key: (4096 bit)
                Modulus (4096 bit):
                    00:9c:06:b2:ff:18:7d:41:0b:2f:c6:95:21:80:f7:
                    48:28:9d:4c:52:6e:28:41:03:e3:0d:e8:d4:b2:cb:
                    cc:09:87:0d:63:ee:5a:df:10:47:d7:9a:ed:b8:ec:
                    3e:ee:df:0b:35:7a:fa:49:ff:ea:89:34:c0:c2:69:
                    8e:29:33:45:f0:ab:da:09:f6:ec:98:95:e2:b4:4f:
                    60:8e:9d:86:43:21:d3:e1:da:73:dc:0e:46:05:e3:
                    2c:84:a6:11:1a:d2:39:d1:6a:7f:8a:fd:99:75:5a:
                    96:34:ca:a1:ef:cf:c0:6a:6b:2d:2a:fd:62:da:2e:
                    6e:73:cf:cf:3b:7a:91:c1:6d:85:c3:fc:b4:77:e7:
                    78:fb:e7:cd:e8:15:03:31:e8:05:5a:21:31:2a:3c:
                    c2:f2:f8:58:bf:4f:ad:d8:e4:43:06:57:d0:e4:b3:
                    60:ac:06:80:ec:cb:39:d7:ae:03:cc:02:97:2d:a0:
                    50:3c:3b:98:9e:b5:69:b2:a0:d1:e0:0e:a7:69:eb:
                    ad:10:80:44:03:2e:08:49:4d:fc:82:b9:88:8a:7f:
                    63:30:6c:e0:a9:bf:8f:0c:12:ba:c3:9d:9f:39:f3:
                    09:b9:58:86:88:93:d9:88:62:5c:80:2b:71:a0:28:
                    2a:c8:ad:df:03:b8:22:cf:83:15:9e:57:61:4c:e5:
                    82:e6:47:47:15:c8:81:cf:75:aa:54:8a:ec:66:37:
                    fb:18:7b:9e:e1:61:6f:fe:94:db:6e:41:fd:2c:32:
                    3d:90:1b:d6:32:99:e4:11:ab:c6:c6:9d:47:70:32:
                    d8:b9:6b:89:a5:a9:c1:32:01:de:82:3b:a1:00:11:
                    ba:d7:15:73:52:9e:8c:f1:74:17:f1:4a:89:81:7f:
                    6f:4e:5f:e3:41:a2:b9:b8:ae:3b:30:f9:eb:b1:5d:
                    d9:06:23:e7:59:08:06:6f:26:d1:5c:d2:20:dc:76:
                    24:0e:44:d5:7f:1f:a3:9e:6f:38:c8:f2:1a:96:46:
                    e0:76:a7:0c:c4:52:c5:75:3f:6f:a0:e0:7f:be:ef:
                    3a:07:0f:b3:9e:52:3b:43:16:9b:a4:8d:b6:c2:6b:
                    6e:f4:a0:9b:ff:6e:e3:7e:fb:5d:dd:d4:e1:e8:f3:
                    f4:a9:87:8a:33:9a:2a:57:3f:e3:90:9c:8c:b2:be:
                    cf:dc:ae:df:36:c7:c4:56:11:ce:66:36:32:0e:bf:
                    f5:6e:bd:7d:cb:01:75:c8:af:13:90:e6:4b:7d:1d:
                    21:64:dd:77:2f:fe:34:e9:4d:75:61:01:b7:0f:70:
                    97:cd:ce:4c:dd:85:bc:f2:41:92:fd:53:36:15:42:
                    21:5f:20:00:5a:ed:6b:5e:6e:df:d2:f3:47:20:0e:
                    40:ea:99
                Exponent: 65537 (0x10001)
    Signature Algorithm: sha1WithRSAEncryption
        5c:d3:3f:96:d5:f6:ee:82:7b:e1:4b:d7:b7:ff:dd:02:9e:e1:
        7e:0c:2e:77:77:f7:7d:40:9b:d6:42:0f:00:6f:e1:a0:fd:64:
        b3:85:2d:5f:b6:a3:44:6c:5f:d5:bf:54:3b:f9:a1:8a:55:8c:
        19:0a:a3:37:12:7c:2f:17:22:65:fb:49:20:e7:77:fe:fc:9e:
        72:53:8c:1c:59:9c:9e:b7:e2:c3:f4:1d:22:e3:f4:e6:d7:e2:
        d1:a6:8e:a8:d8:26:e6:0d:ab:f6:3f:d7:0e:f3:75:4d:ee:04:
        71:00:1b:a7:32:be:1d:ea:de:77:3f:bb:4e:c6:b3:5a:6a:d8:
        f7:f2:9a:36:90:28:db:98:52:9f:76:df:14:af:7c:a0:74:bf:
        34:11:c6:c0:e6:59:4e:4d:fd:9d:8e:88:db:99:57:89:ab:b3:
        41:41:d7:af:0e:a7:64:12:8e:5a:de:fd:7e:4e:86:9f:c6:26:
        10:f5:0f:a9:61:ec:19:f3:30:6c:15:e1:4e:d3:38:a4:fa:84:
        2a:4f:52:a7:32:d9:04:bc:f9:fa:cc:68:d7:08:50:76:69:13:
        c9:17:c6:6a:f9:e7:e2:07:fa:02:52:2b:af:2d:e7:5d:9b:6d:
        8d:68:26:93:ed:5a:7e:39:c8:b3:5a:27:52:57:a9:e3:35:2e:
        af:f6:82:0e:33:3d:d4:96:49:6f:20:35:5c:00:99:a3:3a:de:
        1e:e5:fe:ea:89:95:ed:58:cc:e3:a7:56:a1:15:8d:79:9c:f8:
        16:51:aa:0f:f3:43:77:f4:62:19:9a:d4:2f:23:12:66:96:02:
        87:ac:56:a3:16:84:04:8d:83:c8:ed:c3:2b:b0:d2:ab:f6:9f:
        2a:e8:19:75:dc:65:6f:af:fa:f9:c6:10:8b:5f:a5:31:11:e6:
        92:e0:c2:29:4b:c4:8b:9a:54:2c:e3:81:ad:7f:1a:29:a3:cf:
        80:4e:16:a7:e8:86:36:83:f9:d0:61:95:58:04:3b:9b:40:ae:
        6d:f9:00:34:01:fa:ee:f4:15:e4:21:f9:8b:52:c2:34:0c:81:
        fb:77:91:12:c2:d2:53:20:06:1e:7d:c9:6f:1b:fa:81:24:8c:
        44:38:d4:ac:71:50:ed:70:f5:bd:fe:5b:d5:6f:a0:07:4c:97:
        3f:fb:47:1e:1d:96:d7:21:0b:14:79:53:16:f6:e5:c3:7e:67:
        06:01:44:ca:58:6b:72:2e:a6:a8:94:1d:4e:7b:68:02:d8:82:
        81:6f:e7:13:39:10:db:90:27:df:95:21:ed:23:af:39:7c:cc:
        26:68:32:7c:8c:99:03:77:51:31:b0:d7:02:17:aa:7a:21:0d:
        0d:f5:f0:6c:4a:c8:8c:da
-----BEGIN CERTIFICATE-----
MIIFSTCCAzECAQEwDQYJKoZIhvcNAQEFBQAwXzELMAkGA1UEBhMCQ0gxEjAQBgNV
BAgTCVN0LkdhbGxlbjEYMBYGA1UEAxMPZmxvdy5leGFtcGxlLmNoMSIwIAYJKoZI
hvcNAQkBFhNtYW5mcmVkQG1vcmduZXIuY29tMB4XDTEwMTEwNzIxMTQxNVoXDTMw
MTEwMjIxMTQxNVowdjELMAkGA1UEBhMCQ0gxEjAQBgNVBAgTCVN0LkdhbGxlbjEv
MC0GA1UEAxMmZmxvdy5leGFtcGxlLmNoIGludGVybWVkaWF0ZSBzZXJ2ZXIgQ0Ex
IjAgBgkqhkiG9w0BCQEWE21hbmZyZWRAbW9yZ25lci5jb20wggIiMA0GCSqGSIb3
DQEBAQUAA4ICDwAwggIKAoICAQCcBrL/GH1BCy/GlSGA90gonUxSbihBA+MN6NSy
y8wJhw1j7lrfEEfXmu247D7u3ws1evpJ/+qJNMDCaY4pM0Xwq9oJ9uyYleK0T2CO
nYZDIdPh2nPcDkYF4yyEphEa0jnRan+K/Zl1WpY0yqHvz8Bqay0q/WLaLm5zz887
epHBbYXD/LR353j7583oFQMx6AVaITEqPMLy+Fi/T63Y5EMGV9Dks2CsBoDsyznX
rgPMApctoFA8O5ietWmyoNHgDqdp660QgEQDLghJTfyCuYiKf2MwbOCpv48MErrD
nZ858wm5WIaIk9mIYlyAK3GgKCrIrd8DuCLPgxWeV2FM5YLmR0cVyIHPdapUiuxm
N/sYe57hYW/+lNtuQf0sMj2QG9YymeQRq8bGnUdwMti5a4mlqcEyAd6CO6EAEbrX
FXNSnozxdBfxSomBf29OX+NBorm4rjsw+euxXdkGI+dZCAZvJtFc0iDcdiQORNV/
H6OebzjI8hqWRuB2pwzEUsV1P2+g4H++7zoHD7OeUjtDFpukjbbCa270oJv/buN+
+13d1OHo8/Sph4ozmipXP+OQnIyyvs/crt82x8RWEc5mNjIOv/VuvX3LAXXIrxOQ
5kt9HSFk3Xcv/jTpTXVhAbcPcJfNzkzdhbzyQZL9UzYVQiFfIABa7Wtebt/S80cg
DkDqmQIDAQABMA0GCSqGSIb3DQEBBQUAA4ICAQBc0z+W1fbugnvhS9e3/90CnuF+
DC53d/d9QJvWQg8Ab+Gg/WSzhS1ftqNEbF/Vv1Q7+aGKVYwZCqM3EnwvFyJl+0kg
53f+/J5yU4wcWZyet+LD9B0i4/Tm1+LRpo6o2CbmDav2P9cO83VN7gRxABunMr4d
6t53P7tOxrNaatj38po2kCjbmFKfdt8Ur3ygdL80EcbA5llOTf2djojbmVeJq7NB
QdevDqdkEo5a3v1+ToafxiYQ9Q+pYewZ8zBsFeFO0zik+oQqT1KnMtkEvPn6zGjX
CFB2aRPJF8Zq+efiB/oCUiuvLeddm22NaCaT7Vp+OcizWidSV6njNS6v9oIOMz3U
lklvIDVcAJmjOt4e5f7qiZXtWMzjp1ahFY15nPgWUaoP80N39GIZmtQvIxJmlgKH
rFajFoQEjYPI7cMrsNKr9p8q6Bl13GVvr/r5xhCLX6UxEeaS4MIpS8SLmlQs44Gt
fxopo8+AThan6IY2g/nQYZVYBDubQK5t+QA0Afru9BXkIfmLUsI0DIH7d5ESwtJT
IAYefclvG/qBJIxEONSscVDtcPW9/lvVb6AHTJc/+0ceHZbXIQsUeVMW9uXDfmcG
AUTKWGtyLqaolB1Oe2gC2IKBb+cTORDbkCfflSHtI685fMwmaDJ8jJkDd1ExsNcC
F6p6IQ0N9fBsSsiM2g==
-----END CERTIFICATE-----
