Certificate:
    Data:
        Version: 3 (0x2)
        Serial Number:
            be:03:f1:12:19:cb:dd:24
        Signature Algorithm: sha1WithRSAEncryption
        Issuer: CN=cert.flow-ca.info, O=Great Privacy Commitee, C=CH, ST=Bern, L=Stadt Bern
        Validity
            Not Before: Nov 11 22:38:19 2010 GMT
            Not After : Nov  8 22:38:19 2030 GMT
        Subject: CN=cert.flow-ca.info, O=Great Privacy Commitee, C=CH, ST=Bern, L=Stadt Bern
        Subject Public Key Info:
            Public Key Algorithm: rsaEncryption
            RSA Public Key: (4096 bit)
                Modulus (4096 bit):
                    00:bb:70:9f:14:67:62:06:39:7e:59:53:ed:15:48:
                    b0:74:9e:dd:d8:18:f9:bb:eb:ee:a6:46:00:b6:ba:
                    c8:fe:e8:68:89:c6:24:43:4e:ac:d4:f0:73:34:4c:
                    b9:f9:55:6a:03:b2:01:f9:4d:a0:f5:3f:cf:f6:73:
                    c2:53:a2:f0:1b:22:46:1c:e5:fb:88:57:a9:4c:db:
                    31:05:90:8a:11:98:ca:64:62:29:f0:5f:33:42:0d:
                    29:87:07:e4:9e:28:86:d8:fa:91:b1:8f:eb:62:09:
                    d5:0c:99:d3:83:dd:aa:69:4e:59:87:ce:36:89:42:
                    9b:6c:b5:7e:e0:7e:3a:e5:0a:73:e1:1e:08:2d:a0:
                    ec:f7:7b:24:3c:91:55:98:3f:8c:fa:1e:db:60:e3:
                    03:51:04:71:1f:c0:0a:4a:44:83:40:ca:a3:b2:7a:
                    9a:3b:f5:d4:3f:52:c9:13:76:25:b3:91:d3:33:ef:
                    9b:04:81:c7:39:4f:b7:26:dd:d0:39:7f:26:d2:83:
                    12:2b:cc:71:ae:94:09:73:3f:e1:91:e3:f4:30:fb:
                    2f:17:4d:9c:56:f2:42:2f:f3:c4:99:aa:99:d6:7d:
                    c6:4a:50:42:b3:cf:42:13:87:10:e7:08:b9:de:ff:
                    30:11:34:33:a4:5f:65:79:03:4c:2f:18:65:0e:b2:
                    2f:9f:7a:4e:4c:10:d9:cc:d1:5a:2a:19:f2:54:13:
                    27:0d:89:b7:aa:70:08:7b:47:fc:f6:cc:c5:0d:95:
                    f5:8e:1c:a1:d4:6c:57:82:4c:f0:b0:fc:a1:83:95:
                    54:f8:53:81:a9:3b:b7:f5:6e:1f:7b:5c:7a:db:bc:
                    fb:05:43:57:6b:48:ea:c3:5d:ea:a0:a2:1b:3d:86:
                    41:b4:d9:36:17:c7:2e:9c:da:38:65:15:59:00:07:
                    58:9e:b0:d5:c0:76:e4:39:1f:12:37:52:a6:77:0f:
                    0e:45:6a:bb:e4:8a:41:0e:06:3b:53:ca:9c:7f:f8:
                    4e:5b:78:e0:66:9f:00:97:4a:47:1e:f7:5d:33:e7:
                    2a:36:9a:e2:0c:5f:c3:b4:88:df:a4:3f:87:21:ce:
                    4f:e0:4f:a4:7c:43:52:78:a7:fd:0a:0f:a8:6d:95:
                    be:b8:8d:66:bf:9a:87:93:75:57:4f:00:d2:60:ea:
                    6e:e8:46:05:02:60:8a:06:d2:f7:5d:45:e7:8d:41:
                    63:df:ee:a1:96:0a:fc:d0:0a:a0:f7:cf:1f:9d:a5:
                    4b:ed:40:fc:bf:e1:62:6b:81:4a:09:14:52:c5:f2:
                    f1:6f:5f:5d:9e:67:bf:a0:00:4a:41:e2:4d:8a:98:
                    38:75:e4:2d:57:7e:d6:6e:fd:f5:a6:b3:af:38:6d:
                    f9:1f:99
                Exponent: 65537 (0x10001)
        X509v3 extensions:
            X509v3 Subject Key Identifier: 
                1A:19:47:31:74:B5:82:27:C3:51:4C:CB:E5:38:72:10:73:EB:AC:2B
            X509v3 Authority Key Identifier: 
                keyid:1A:19:47:31:74:B5:82:27:C3:51:4C:CB:E5:38:72:10:73:EB:AC:2B
                DirName:/CN=cert.flow-ca.info/O=Great Privacy Commitee/C=CH/ST=Bern/L=Stadt Bern
                serial:BE:03:F1:12:19:CB:DD:24

            X509v3 Basic Constraints: 
                CA:TRUE
    Signature Algorithm: sha1WithRSAEncryption
        71:16:2f:dc:f8:fa:80:78:c4:af:d4:11:48:cf:bc:85:9c:b8:
        c2:4d:6c:a5:11:1e:5e:b7:11:dd:e9:b9:ee:33:ff:d0:bd:d0:
        42:20:c3:af:9b:75:c5:e7:d7:8e:8b:2b:13:2a:31:b7:72:16:
        c3:fc:89:5d:58:c1:fc:41:20:ed:9c:c5:3b:00:ef:8c:48:0f:
        b0:34:c8:44:9e:16:a5:f2:70:92:05:90:dd:2e:a7:49:e6:1a:
        49:b2:01:39:33:6b:a9:4d:82:44:4a:19:75:a7:51:8d:74:78:
        27:21:ce:36:7c:9a:71:b5:c0:e8:d0:2a:e2:c7:2f:b2:bf:df:
        da:a9:2a:82:14:66:d4:df:51:6b:ff:dc:9f:87:9d:e0:84:b9:
        b6:ec:4b:1a:51:c0:64:6c:6d:62:3d:ea:4f:42:6f:f0:54:9e:
        ee:53:78:2c:fc:ab:ac:f1:ee:39:8e:54:20:9e:43:c1:80:df:
        4c:50:3d:02:7c:d4:45:d0:3c:44:87:3e:76:1a:00:08:1c:b0:
        c3:cc:3d:f5:73:39:9e:df:11:bf:65:ab:64:da:21:d3:37:c1:
        5c:76:9b:e0:df:bb:24:7f:92:5a:82:ec:49:fb:ce:f1:98:cc:
        7e:5e:6b:bd:65:66:d7:2d:a8:b6:fe:f1:0b:78:ee:4c:63:9f:
        49:84:33:97:ab:a4:01:ce:6c:4b:2a:97:62:37:21:60:81:11:
        c7:8c:e4:e5:aa:d1:10:ca:13:6c:27:8c:84:3b:15:6b:27:e8:
        d0:12:2f:5a:04:3c:e2:21:c2:ff:9f:3d:4b:eb:30:e8:88:69:
        98:7b:24:48:ae:4b:5e:52:e5:93:d1:42:84:87:12:a8:1e:43:
        1a:06:57:ee:b0:f7:bf:66:0c:23:2a:6b:98:b8:6d:81:86:03:
        d7:69:cf:e3:eb:05:84:6c:95:3c:ad:17:5b:c8:73:1f:08:5d:
        c0:8b:4f:e2:d5:69:df:76:37:46:da:3d:fc:34:f6:d9:bd:78:
        1c:1b:83:d5:5c:fd:5a:d9:8f:cd:1a:e4:57:b8:c5:d3:37:1a:
        2e:d1:a8:af:e5:7c:90:9c:e4:dc:57:4f:59:9a:c7:a3:0d:2d:
        f4:13:f2:2a:d3:19:1e:21:f7:7d:87:20:77:23:bb:2e:f1:b6:
        ee:b8:f1:4c:e1:37:62:1d:50:be:ac:f9:a0:06:48:43:10:43:
        73:40:53:82:b5:1e:e5:5a:e3:28:00:d2:03:3d:33:6e:c7:6a:
        bf:58:c3:29:bf:d8:9c:48:bb:a6:23:90:a1:91:1f:de:23:d2:
        1a:37:59:49:b1:a8:a3:89:e0:9b:52:c4:08:9b:2f:9f:f9:e3:
        6a:fb:3c:56:6e:a7:ca:ac
-----BEGIN CERTIFICATE-----
MIIGMzCCBBugAwIBAgIJAL4D8RIZy90kMA0GCSqGSIb3DQEBBQUAMG4xGjAYBgNV
BAMTEWNlcnQuZmxvdy1jYS5pbmZvMR8wHQYDVQQKExZHcmVhdCBQcml2YWN5IENv
bW1pdGVlMQswCQYDVQQGEwJDSDENMAsGA1UECBMEQmVybjETMBEGA1UEBxMKU3Rh
ZHQgQmVybjAeFw0xMDExMTEyMjM4MTlaFw0zMDExMDgyMjM4MTlaMG4xGjAYBgNV
BAMTEWNlcnQuZmxvdy1jYS5pbmZvMR8wHQYDVQQKExZHcmVhdCBQcml2YWN5IENv
bW1pdGVlMQswCQYDVQQGEwJDSDENMAsGA1UECBMEQmVybjETMBEGA1UEBxMKU3Rh
ZHQgQmVybjCCAiIwDQYJKoZIhvcNAQEBBQADggIPADCCAgoCggIBALtwnxRnYgY5
fllT7RVIsHSe3dgY+bvr7qZGALa6yP7oaInGJENOrNTwczRMuflVagOyAflNoPU/
z/ZzwlOi8BsiRhzl+4hXqUzbMQWQihGYymRiKfBfM0INKYcH5J4ohtj6kbGP62IJ
1QyZ04PdqmlOWYfONolCm2y1fuB+OuUKc+EeCC2g7Pd7JDyRVZg/jPoe22DjA1EE
cR/ACkpEg0DKo7J6mjv11D9SyRN2JbOR0zPvmwSBxzlPtybd0Dl/JtKDEivMca6U
CXM/4ZHj9DD7LxdNnFbyQi/zxJmqmdZ9xkpQQrPPQhOHEOcIud7/MBE0M6RfZXkD
TC8YZQ6yL596TkwQ2czRWioZ8lQTJw2Jt6pwCHtH/PbMxQ2V9Y4codRsV4JM8LD8
oYOVVPhTgak7t/VuH3tcetu8+wVDV2tI6sNd6qCiGz2GQbTZNhfHLpzaOGUVWQAH
WJ6w1cB25DkfEjdSpncPDkVqu+SKQQ4GO1PKnH/4Tlt44GafAJdKRx73XTPnKjaa
4gxfw7SI36Q/hyHOT+BPpHxDUnin/QoPqG2VvriNZr+ah5N1V08A0mDqbuhGBQJg
igbS911F541BY9/uoZYK/NAKoPfPH52lS+1A/L/hYmuBSgkUUsXy8W9fXZ5nv6AA
SkHiTYqYOHXkLVd+1m799aazrzht+R+ZAgMBAAGjgdMwgdAwHQYDVR0OBBYEFBoZ
RzF0tYInw1FMy+U4chBz66wrMIGgBgNVHSMEgZgwgZWAFBoZRzF0tYInw1FMy+U4
chBz66wroXKkcDBuMRowGAYDVQQDExFjZXJ0LmZsb3ctY2EuaW5mbzEfMB0GA1UE
ChMWR3JlYXQgUHJpdmFjeSBDb21taXRlZTELMAkGA1UEBhMCQ0gxDTALBgNVBAgT
BEJlcm4xEzARBgNVBAcTClN0YWR0IEJlcm6CCQC+A/ESGcvdJDAMBgNVHRMEBTAD
AQH/MA0GCSqGSIb3DQEBBQUAA4ICAQBxFi/c+PqAeMSv1BFIz7yFnLjCTWylER5e
txHd6bnuM//QvdBCIMOvm3XF59eOiysTKjG3chbD/IldWMH8QSDtnMU7AO+MSA+w
NMhEnhal8nCSBZDdLqdJ5hpJsgE5M2upTYJEShl1p1GNdHgnIc42fJpxtcDo0Cri
xy+yv9/aqSqCFGbU31Fr/9yfh53ghLm27EsaUcBkbG1iPepPQm/wVJ7uU3gs/Kus
8e45jlQgnkPBgN9MUD0CfNRF0DxEhz52GgAIHLDDzD31czme3xG/Zatk2iHTN8Fc
dpvg37skf5JaguxJ+87xmMx+Xmu9ZWbXLai2/vELeO5MY59JhDOXq6QBzmxLKpdi
NyFggRHHjOTlqtEQyhNsJ4yEOxVrJ+jQEi9aBDziIcL/nz1L6zDoiGmYeyRIrkte
UuWT0UKEhxKoHkMaBlfusPe/ZgwjKmuYuG2BhgPXac/j6wWEbJU8rRdbyHMfCF3A
i0/i1WnfdjdG2j38NPbZvXgcG4PVXP1a2Y/NGuRXuMXTNxou0aiv5XyQnOTcV09Z
msejDS30E/Iq0xkeIfd9hyB3I7su8bbuuPFM4TdiHVC+rPmgBkhDEENzQFOCtR7l
WuMoANIDPTNux2q/WMMpv9icSLumI5ChkR/eI9IaN1lJsaijieCbUsQImy+f+eNq
+zxWbqfKrA==
-----END CERTIFICATE-----
Certificate:
    Data:
        Version: 3 (0x2)
        Serial Number: 200 (0xc8)
        Signature Algorithm: sha1WithRSAEncryption
        Issuer: CN=cert.flow-ca.info, O=Great Privacy Commitee, C=CH, ST=Bern, L=Stadt Bern
        Validity
            Not Before: Nov 11 22:38:21 2010 GMT
            Not After : Nov  6 22:38:21 2030 GMT
        Subject: CN=Intermediate Client CA, O=Great Privacy Client Administration, C=CH, ST=Bern, L=Stadt Bern
        Subject Public Key Info:
            Public Key Algorithm: rsaEncryption
            RSA Public Key: (4096 bit)
                Modulus (4096 bit):
                    00:c8:58:17:4c:0a:9c:a4:9c:ce:f5:28:ed:3f:c5:
                    f8:ec:92:d8:94:8f:78:be:60:9f:37:bf:33:91:5c:
                    c5:5d:20:5e:84:23:95:7a:6f:73:39:34:24:7d:c7:
                    21:00:b1:52:18:48:a3:37:f3:12:17:8c:aa:06:17:
                    60:9f:9c:88:9f:72:83:8c:88:48:61:30:b6:87:fe:
                    c5:d9:3f:f2:48:3b:4a:d6:30:d9:5b:96:b7:98:a0:
                    6f:59:ab:f7:b6:8a:a9:dc:c5:39:c0:b5:dd:79:90:
                    6c:7b:35:f9:f0:80:3a:e0:fa:be:a2:d8:46:91:69:
                    c9:cc:e1:fc:9d:6b:fe:01:43:4e:74:3c:76:0c:e8:
                    e5:3f:0e:e9:97:e2:94:b6:14:f1:ab:10:e3:c0:18:
                    f2:11:9f:25:26:2d:6d:bd:2b:84:27:54:1d:64:4e:
                    90:22:b3:04:9d:df:bd:65:05:ad:09:93:b0:e9:b9:
                    13:62:e9:34:bb:33:32:75:91:4c:93:5e:84:10:f9:
                    88:01:d2:18:ea:7d:f2:bd:58:db:d2:eb:9b:72:bd:
                    d0:a9:9d:29:1c:34:bd:ba:dc:5d:6b:fe:08:9c:a5:
                    ca:06:ba:08:ce:f7:fd:9d:54:1d:67:47:1b:64:6f:
                    22:72:4e:46:19:f9:76:47:8d:39:e8:0a:b2:5f:67:
                    e3:36:4c:b2:15:63:8a:72:37:83:2c:43:14:8e:77:
                    a8:5a:6b:b3:e7:0e:40:32:12:82:5f:73:17:77:b3:
                    a0:b1:48:01:d0:63:4c:c8:93:ea:56:27:7a:d6:b4:
                    b0:eb:54:ad:e4:7b:3c:f8:73:c6:77:16:a3:1e:cd:
                    08:af:8f:22:e5:ad:a7:16:83:13:5b:21:9a:f0:d5:
                    48:57:9e:bf:c0:b3:fb:6f:fe:45:9a:75:ef:b8:9d:
                    81:9a:da:c1:4e:0b:02:f8:b6:1f:e6:0b:91:11:6c:
                    75:0b:10:f2:b6:b0:1c:a8:e1:d7:25:ba:f3:52:e4:
                    a1:be:aa:b0:bb:3c:1a:10:be:78:84:cb:bb:1d:e8:
                    f9:34:e7:4a:ba:9a:38:e4:ba:c7:07:f3:0f:b1:e7:
                    3a:9b:0c:96:a6:77:1c:53:14:e9:59:e3:d0:0a:ae:
                    95:7f:6a:92:c2:23:d1:8e:0a:7a:66:f8:f6:2d:3c:
                    51:4a:f7:d8:3d:1a:5f:3e:60:3a:9a:22:eb:67:f6:
                    e8:19:8d:5c:bd:96:2a:86:6a:df:a0:a6:66:31:f9:
                    7a:20:9e:56:62:b5:d3:fa:de:b3:30:99:e1:5f:d6:
                    d7:f4:d3:aa:76:fa:12:90:77:c4:9e:4b:7d:78:bc:
                    f2:8d:bf:b2:8e:19:e6:17:b2:79:17:11:91:0b:42:
                    23:89:b5
                Exponent: 65537 (0x10001)
        X509v3 extensions:
            X509v3 Subject Key Identifier: 
                FE:BE:78:8A:BD:0D:E1:34:91:5E:36:82:15:57:94:60:97:8B:3A:0F
            X509v3 Authority Key Identifier: 
                keyid:1A:19:47:31:74:B5:82:27:C3:51:4C:CB:E5:38:72:10:73:EB:AC:2B
                DirName:/CN=cert.flow-ca.info/O=Great Privacy Commitee/C=CH/ST=Bern/L=Stadt Bern
                serial:BE:03:F1:12:19:CB:DD:24

            X509v3 Basic Constraints: 
                CA:TRUE
    Signature Algorithm: sha1WithRSAEncryption
        8d:6a:cc:b6:17:97:f6:7f:af:a2:cf:aa:d4:d1:03:89:ba:86:
        20:77:7c:83:07:85:31:c5:c0:41:41:54:8d:32:73:3c:0f:4f:
        5d:b4:56:06:a6:83:09:cf:7a:d5:f5:02:8e:9a:a4:30:f7:de:
        78:92:17:f8:c5:07:8e:c2:cd:d9:48:21:b1:f2:0f:e8:d7:57:
        92:42:38:1a:7d:c4:7c:a9:16:c4:4b:8e:f6:2e:92:3d:93:06:
        3f:e7:0f:88:ba:ff:78:c8:50:a4:72:91:0d:31:d6:e3:f8:bc:
        ab:3e:0c:a2:02:74:2c:e0:9f:03:5b:f0:86:53:27:a5:63:94:
        06:e4:2a:fb:f3:f1:80:d5:f8:4a:20:01:f8:05:6c:dc:7e:37:
        8b:2e:84:a0:b4:9f:67:ae:9a:b2:6e:09:6a:0e:e5:8e:f5:49:
        0a:6d:d8:3f:b6:a5:87:e9:03:34:f5:39:0a:40:b4:68:4b:ca:
        7e:50:9f:b3:9b:4c:a5:0d:68:d6:7a:06:c4:89:b0:00:b2:09:
        61:e6:16:0f:82:ed:1c:3d:27:96:c8:db:5e:87:a4:d8:c8:a3:
        47:ab:46:d4:fe:f2:86:b7:10:f6:77:c8:f0:bc:cb:37:63:65:
        ed:77:a5:96:cd:77:99:79:da:da:4d:b4:94:42:84:45:4f:4e:
        6b:2e:9b:76:61:96:89:49:b2:17:16:ff:e5:dc:17:c0:0a:40:
        67:57:f8:c0:76:88:21:3e:91:03:59:67:51:d4:d3:fb:fa:c4:
        d8:d9:9f:36:7b:02:49:e8:de:c8:78:ca:e2:90:48:37:52:05:
        e6:2a:cc:48:b0:9d:49:c3:43:02:80:94:17:e5:39:1b:1c:38:
        22:5e:82:4e:89:14:16:46:e8:97:b1:95:10:1d:2e:cc:48:4e:
        77:81:2a:7c:d8:87:9f:ca:0b:81:bc:39:3d:bd:b3:41:e5:56:
        1a:df:da:f4:5b:84:51:6a:8d:25:70:ef:73:a4:60:a0:91:fe:
        2e:50:bc:1a:90:b7:9f:e2:b6:0b:e5:a8:fc:1b:61:a4:2d:e0:
        78:60:67:61:dd:49:ea:05:d3:4e:de:18:12:3e:b1:2b:34:c7:
        c7:09:11:ef:b7:5a:c9:17:56:69:9f:cc:f7:ef:73:2c:99:4c:
        69:94:81:91:e6:c8:5b:e2:8a:89:27:27:ae:4d:56:95:98:20:
        17:0a:be:f1:a2:64:47:a4:6b:cd:48:5e:34:59:22:22:a1:d5:
        78:f4:52:3c:2d:c0:93:4f:cc:78:22:62:25:2b:bf:c5:c3:66:
        3b:a1:b7:02:48:82:23:b1:19:46:94:7d:79:05:e7:b2:3d:0b:
        54:a9:8c:e8:8e:bf:7a:66
-----BEGIN CERTIFICATE-----
MIIGPzCCBCegAwIBAgICAMgwDQYJKoZIhvcNAQEFBQAwbjEaMBgGA1UEAxMRY2Vy
dC5mbG93LWNhLmluZm8xHzAdBgNVBAoTFkdyZWF0IFByaXZhY3kgQ29tbWl0ZWUx
CzAJBgNVBAYTAkNIMQ0wCwYDVQQIEwRCZXJuMRMwEQYDVQQHEwpTdGFkdCBCZXJu
MB4XDTEwMTExMTIyMzgyMVoXDTMwMTEwNjIyMzgyMVowgYAxHzAdBgNVBAMTFklu
dGVybWVkaWF0ZSBDbGllbnQgQ0ExLDAqBgNVBAoTI0dyZWF0IFByaXZhY3kgQ2xp
ZW50IEFkbWluaXN0cmF0aW9uMQswCQYDVQQGEwJDSDENMAsGA1UECBMEQmVybjET
MBEGA1UEBxMKU3RhZHQgQmVybjCCAiIwDQYJKoZIhvcNAQEBBQADggIPADCCAgoC
ggIBAMhYF0wKnKSczvUo7T/F+OyS2JSPeL5gnze/M5FcxV0gXoQjlXpvczk0JH3H
IQCxUhhIozfzEheMqgYXYJ+ciJ9yg4yISGEwtof+xdk/8kg7StYw2VuWt5igb1mr
97aKqdzFOcC13XmQbHs1+fCAOuD6vqLYRpFpyczh/J1r/gFDTnQ8dgzo5T8O6Zfi
lLYU8asQ48AY8hGfJSYtbb0rhCdUHWROkCKzBJ3fvWUFrQmTsOm5E2LpNLszMnWR
TJNehBD5iAHSGOp98r1Y29Lrm3K90KmdKRw0vbrcXWv+CJylyga6CM73/Z1UHWdH
G2RvInJORhn5dkeNOegKsl9n4zZMshVjinI3gyxDFI53qFprs+cOQDISgl9zF3ez
oLFIAdBjTMiT6lYneta0sOtUreR7PPhzxncWox7NCK+PIuWtpxaDE1shmvDVSFee
v8Cz+2/+RZp177idgZrawU4LAvi2H+YLkRFsdQsQ8rawHKjh1yW681Lkob6qsLs8
GhC+eITLux3o+TTnSrqaOOS6xwfzD7HnOpsMlqZ3HFMU6Vnj0AqulX9qksIj0Y4K
emb49i08UUr32D0aXz5gOpoi62f26BmNXL2WKoZq36CmZjH5eiCeVmK10/reszCZ
4V/W1/TTqnb6EpB3xJ5LfXi88o2/so4Z5heyeRcRkQtCI4m1AgMBAAGjgdMwgdAw
HQYDVR0OBBYEFP6+eIq9DeE0kV42ghVXlGCXizoPMIGgBgNVHSMEgZgwgZWAFBoZ
RzF0tYInw1FMy+U4chBz66wroXKkcDBuMRowGAYDVQQDExFjZXJ0LmZsb3ctY2Eu
aW5mbzEfMB0GA1UEChMWR3JlYXQgUHJpdmFjeSBDb21taXRlZTELMAkGA1UEBhMC
Q0gxDTALBgNVBAgTBEJlcm4xEzARBgNVBAcTClN0YWR0IEJlcm6CCQC+A/ESGcvd
JDAMBgNVHRMEBTADAQH/MA0GCSqGSIb3DQEBBQUAA4ICAQCNasy2F5f2f6+iz6rU
0QOJuoYgd3yDB4UxxcBBQVSNMnM8D09dtFYGpoMJz3rV9QKOmqQw9954khf4xQeO
ws3ZSCGx8g/o11eSQjgafcR8qRbES472LpI9kwY/5w+Iuv94yFCkcpENMdbj+Lyr
PgyiAnQs4J8DW/CGUyelY5QG5Cr78/GA1fhKIAH4BWzcfjeLLoSgtJ9nrpqybglq
DuWO9UkKbdg/tqWH6QM09TkKQLRoS8p+UJ+zm0ylDWjWegbEibAAsglh5hYPgu0c
PSeWyNteh6TYyKNHq0bU/vKGtxD2d8jwvMs3Y2Xtd6WWzXeZedraTbSUQoRFT05r
Lpt2YZaJSbIXFv/l3BfACkBnV/jAdoghPpEDWWdR1NP7+sTY2Z82ewJJ6N7IeMri
kEg3UgXmKsxIsJ1Jw0MCgJQX5TkbHDgiXoJOiRQWRuiXsZUQHS7MSE53gSp82Ief
yguBvDk9vbNB5VYa39r0W4RRao0lcO9zpGCgkf4uULwakLef4rYL5aj8G2GkLeB4
YGdh3UnqBdNO3hgSPrErNMfHCRHvt1rJF1Zpn8z373MsmUxplIGR5shb4oqJJyeu
TVaVmCAXCr7xomRHpGvNSF40WSIiodV49FI8LcCTT8x4ImIlK7/Fw2Y7obcCSIIj
sRlGlH15BeeyPQtUqYzojr96Zg==
-----END CERTIFICATE-----
