Certificate:
    Data:
        Version: 3 (0x2)
        Serial Number:
            9a:77:e4:a1:61:42:fe:9d
        Signature Algorithm: sha1WithRSAEncryption
        Issuer: C=CH, ST=St.Gallen, CN=flow.example.ch/emailAddress=manfred@morgner.com
        Validity
            Not Before: Nov  7 21:06:30 2010 GMT
            Not After : Nov  3 21:06:30 2030 GMT
        Subject: C=CH, ST=St.Gallen, CN=flow.example.ch/emailAddress=manfred@morgner.com
        Subject Public Key Info:
            Public Key Algorithm: rsaEncryption
            RSA Public Key: (4096 bit)
                Modulus (4096 bit):
                    00:d3:02:c9:1b:a4:d9:4e:46:28:18:c4:5d:ab:55:
                    28:21:77:63:77:55:fc:bd:b4:46:d4:b6:f9:24:57:
                    6c:c7:98:d0:14:10:52:43:ef:eb:46:2a:32:56:7f:
                    7e:eb:d6:5c:b5:9b:43:44:08:a6:4b:0a:33:48:ff:
                    d2:d9:ca:72:bc:f5:94:13:63:89:c3:d1:29:99:76:
                    f0:44:a6:d8:5e:3b:27:6f:d3:8a:28:c3:71:ba:6e:
                    c0:a3:21:ed:87:7d:62:32:58:ca:f2:73:38:d8:d3:
                    37:8a:bc:88:1d:ca:8f:5f:53:4b:ed:6d:87:ff:b7:
                    4d:d4:42:61:12:9d:1f:37:bb:bd:18:ba:ef:8c:d2:
                    9d:7c:e9:b1:73:69:f3:51:cf:6b:e6:68:80:98:a3:
                    c3:9f:e9:04:3f:09:db:9f:e4:a9:0d:9e:5e:d9:3b:
                    44:6f:db:6c:0b:a2:ff:c5:f1:3f:c3:5e:e0:ad:28:
                    ca:a1:4b:25:88:e5:a7:7c:a2:ff:79:eb:e8:78:1c:
                    0a:6b:60:9d:9b:6b:a1:e4:ef:d8:e7:f6:a3:f2:a5:
                    b0:d3:d7:b1:cf:00:3e:39:04:81:cb:23:0e:3f:d6:
                    1c:fd:78:a6:95:de:4d:bb:c8:8b:ff:ce:49:2f:64:
                    38:11:d0:3f:f8:ae:c0:bc:8e:59:c5:e5:62:6a:1d:
                    10:3a:bd:30:ba:e1:15:58:cb:93:6a:73:c2:8b:44:
                    1f:a3:0f:8d:89:bb:08:28:b4:09:7f:4c:3b:e1:9d:
                    87:b4:2a:08:a6:82:1e:56:f7:4a:2a:57:b0:5c:8f:
                    31:21:b2:3a:f5:aa:d0:da:b0:8d:cd:26:5a:ec:c3:
                    ce:01:f9:a6:8e:cf:a5:ef:92:1c:86:1a:1c:8e:5a:
                    68:0a:c1:7a:f8:da:ca:46:4d:b2:7a:be:4f:62:b0:
                    66:51:3a:9b:ac:fd:22:d7:87:2a:28:5a:68:b5:79:
                    e8:9e:a8:ec:4c:48:dd:a5:c3:e6:ac:d4:f7:69:75:
                    c7:dd:5b:96:2d:8a:71:6e:af:0d:05:19:33:ad:43:
                    20:2f:f3:1e:81:27:2d:82:db:e6:4d:ab:be:6c:0a:
                    e8:74:68:ad:19:d3:4f:a9:fd:aa:ab:22:f8:11:5a:
                    43:7a:d8:45:ee:c7:1c:af:42:54:43:92:c6:93:03:
                    fe:46:22:1e:60:66:d2:9f:4c:3c:2b:ac:39:38:e5:
                    1c:7e:ae:db:9b:57:af:d7:85:85:71:62:22:7a:b7:
                    e1:b0:b4:ca:62:88:46:17:0b:05:1e:af:2a:93:bd:
                    2e:2e:5c:dd:80:eb:b7:b8:2e:9f:15:f8:1f:bc:ca:
                    10:bc:2c:34:fe:ff:70:96:3b:c8:fa:1c:99:88:41:
                    ff:ff:a3
                Exponent: 65537 (0x10001)
        X509v3 extensions:
            X509v3 Subject Key Identifier: 
                F1:8D:26:F6:7F:AB:60:70:98:B3:68:80:95:70:C6:8A:C5:E6:B2:D8
            X509v3 Authority Key Identifier: 
                keyid:F1:8D:26:F6:7F:AB:60:70:98:B3:68:80:95:70:C6:8A:C5:E6:B2:D8
                DirName:/C=CH/ST=St.Gallen/CN=flow.example.ch/emailAddress=manfred@morgner.com
                serial:9A:77:E4:A1:61:42:FE:9D

            X509v3 Basic Constraints: 
                CA:TRUE
    Signature Algorithm: sha1WithRSAEncryption
        62:06:57:86:e2:0d:71:78:d3:58:f5:e6:5c:ea:8b:25:53:3f:
        cb:52:63:40:1d:09:1d:b0:d2:b6:0c:10:a6:a2:f0:6b:f6:97:
        8d:d5:76:e6:8a:16:7c:bc:1a:d2:b2:82:34:95:cd:36:61:a8:
        41:03:d5:2d:ff:a9:b8:b7:62:1b:06:bd:a1:74:d4:e1:7d:d0:
        29:53:cd:86:6c:98:b3:74:4a:ec:20:15:be:88:fc:d2:3b:da:
        ba:2d:6e:42:45:e7:89:c5:d7:ae:e7:49:df:aa:88:12:35:8e:
        7f:c8:35:7f:44:dc:46:3b:a5:15:95:a2:96:ad:3e:ec:e4:53:
        fa:b7:6d:10:13:93:57:c5:d8:3c:94:e5:b8:47:33:fd:5f:ca:
        54:e4:82:8b:f3:b6:13:cf:33:11:7d:42:24:28:5f:1a:35:43:
        a8:0b:fe:c9:97:d4:6c:44:3c:1f:83:2c:2f:12:54:c7:98:03:
        03:07:a3:e8:3d:98:84:d9:f1:7b:97:12:94:cd:7c:4d:23:5e:
        07:e3:df:6b:59:48:43:e0:e0:95:ed:c4:79:cd:74:d3:54:87:
        56:d3:82:b4:d9:07:fa:80:62:b7:a5:10:f6:47:86:06:c4:03:
        9a:32:bd:46:ee:28:d1:62:90:e8:52:64:5a:18:ab:a2:b9:09:
        bb:05:96:a9:d7:20:76:80:26:e0:4d:00:74:4c:0d:27:8f:0e:
        3e:f2:c7:0d:9b:8d:7a:26:bd:c4:32:5f:37:f3:fb:be:99:9a:
        1d:56:2d:7d:de:26:30:4a:67:6b:14:85:29:ed:2b:65:4b:76:
        17:f7:f7:58:23:b5:4c:3c:cd:ae:76:19:aa:54:a8:70:1d:04:
        aa:86:fe:89:5e:89:2d:6c:9d:57:1a:3a:dc:8f:e0:41:0a:b2:
        2c:13:7e:6b:4d:b2:5e:9b:9c:e5:71:2b:b5:bd:c4:8b:a0:1c:
        fe:1d:3a:ed:55:0c:88:27:36:ca:a7:b2:14:6e:d6:f5:6c:66:
        0b:6c:a2:c9:9c:ac:ea:33:05:63:88:75:43:43:8d:ca:36:6e:
        d1:8e:40:13:79:d6:98:5f:c7:4e:31:b4:c5:3e:27:17:42:d2:
        03:31:94:32:8b:34:30:12:40:de:0a:73:7f:ae:18:2b:d8:d6:
        9e:3b:62:b3:72:14:9c:1a:68:13:9c:ec:41:06:2a:e9:5c:23:
        56:29:56:e2:bb:b3:06:11:12:dd:e2:18:38:4f:cc:ca:1f:7c:
        cc:e0:b5:44:f1:ed:a3:38:1b:e6:45:6d:cb:20:f0:f0:36:7a:
        18:2c:26:46:97:46:eb:b5:e4:da:c1:ef:89:94:20:67:50:a0:
        31:53:ff:35:c7:d3:f3:e4
-----BEGIN CERTIFICATE-----
MIIGBjCCA+6gAwIBAgIJAJp35KFhQv6dMA0GCSqGSIb3DQEBBQUAMF8xCzAJBgNV
BAYTAkNIMRIwEAYDVQQIEwlTdC5HYWxsZW4xGDAWBgNVBAMTD2Zsb3cuZXhhbXBs
ZS5jaDEiMCAGCSqGSIb3DQEJARYTbWFuZnJlZEBtb3JnbmVyLmNvbTAeFw0xMDEx
MDcyMTA2MzBaFw0zMDExMDMyMTA2MzBaMF8xCzAJBgNVBAYTAkNIMRIwEAYDVQQI
EwlTdC5HYWxsZW4xGDAWBgNVBAMTD2Zsb3cuZXhhbXBsZS5jaDEiMCAGCSqGSIb3
DQEJARYTbWFuZnJlZEBtb3JnbmVyLmNvbTCCAiIwDQYJKoZIhvcNAQEBBQADggIP
ADCCAgoCggIBANMCyRuk2U5GKBjEXatVKCF3Y3dV/L20RtS2+SRXbMeY0BQQUkPv
60YqMlZ/fuvWXLWbQ0QIpksKM0j/0tnKcrz1lBNjicPRKZl28ESm2F47J2/TiijD
cbpuwKMh7Yd9YjJYyvJzONjTN4q8iB3Kj19TS+1th/+3TdRCYRKdHze7vRi674zS
nXzpsXNp81HPa+ZogJijw5/pBD8J25/kqQ2eXtk7RG/bbAui/8XxP8Ne4K0oyqFL
JYjlp3yi/3nr6HgcCmtgnZtroeTv2Of2o/KlsNPXsc8APjkEgcsjDj/WHP14ppXe
TbvIi//OSS9kOBHQP/iuwLyOWcXlYmodEDq9MLrhFVjLk2pzwotEH6MPjYm7CCi0
CX9MO+Gdh7QqCKaCHlb3SipXsFyPMSGyOvWq0Nqwjc0mWuzDzgH5po7Ppe+SHIYa
HI5aaArBevjaykZNsnq+T2KwZlE6m6z9IteHKihaaLV56J6o7ExI3aXD5qzU92l1
x91bli2KcW6vDQUZM61DIC/zHoEnLYLb5k2rvmwK6HRorRnTT6n9qqsi+BFaQ3rY
Re7HHK9CVEOSxpMD/kYiHmBm0p9MPCusOTjlHH6u25tXr9eFhXFiInq34bC0ymKI
RhcLBR6vKpO9Li5c3YDrt7gunxX4H7zKELwsNP7/cJY7yPocmYhB//+jAgMBAAGj
gcQwgcEwHQYDVR0OBBYEFPGNJvZ/q2BwmLNogJVwxorF5rLYMIGRBgNVHSMEgYkw
gYaAFPGNJvZ/q2BwmLNogJVwxorF5rLYoWOkYTBfMQswCQYDVQQGEwJDSDESMBAG
A1UECBMJU3QuR2FsbGVuMRgwFgYDVQQDEw9mbG93LmV4YW1wbGUuY2gxIjAgBgkq
hkiG9w0BCQEWE21hbmZyZWRAbW9yZ25lci5jb22CCQCad+ShYUL+nTAMBgNVHRME
BTADAQH/MA0GCSqGSIb3DQEBBQUAA4ICAQBiBleG4g1xeNNY9eZc6oslUz/LUmNA
HQkdsNK2DBCmovBr9peN1XbmihZ8vBrSsoI0lc02YahBA9Ut/6m4t2IbBr2hdNTh
fdApU82GbJizdErsIBW+iPzSO9q6LW5CReeJxdeu50nfqogSNY5/yDV/RNxGO6UV
laKWrT7s5FP6t20QE5NXxdg8lOW4RzP9X8pU5IKL87YTzzMRfUIkKF8aNUOoC/7J
l9RsRDwfgywvElTHmAMDB6PoPZiE2fF7lxKUzXxNI14H499rWUhD4OCV7cR5zXTT
VIdW04K02Qf6gGK3pRD2R4YGxAOaMr1G7ijRYpDoUmRaGKuiuQm7BZap1yB2gCbg
TQB0TA0njw4+8scNm416Jr3EMl838/u+mZodVi193iYwSmdrFIUp7StlS3YX9/dY
I7VMPM2udhmqVKhwHQSqhv6JXoktbJ1XGjrcj+BBCrIsE35rTbJem5zlcSu1vcSL
oBz+HTrtVQyIJzbKp7IUbtb1bGYLbKLJnKzqMwVjiHVDQ43KNm7RjkATedaYX8dO
MbTFPicXQtIDMZQyizQwEkDeCnN/rhgr2NaeO2KzchScGmgTnOxBBirpXCNWKVbi
u7MGERLd4hg4T8zKH3zM4LVE8e2jOBvmRW3LIPDwNnoYLCZGl0brteTawe+JlCBn
UKAxU/81x9Pz5A==
-----END CERTIFICATE-----
Certificate:
    Data:
        Version: 1 (0x0)
        Serial Number: 2 (0x2)
        Signature Algorithm: sha1WithRSAEncryption
        Issuer: C=CH, ST=St.Gallen, CN=flow.example.ch/emailAddress=manfred@morgner.com
        Validity
            Not Before: Nov  7 21:16:24 2010 GMT
            Not After : Nov  2 21:16:24 2030 GMT
        Subject: C=CH, ST=St.Gallen, CN=flow.example.ch intermediate client CA/emailAddress=manfred@morgner.com
        Subject Public Key Info:
            Public Key Algorithm: rsaEncryption
            RSA Public Key: (4096 bit)
                Modulus (4096 bit):
                    00:f0:3a:21:85:b5:ee:a6:c2:32:70:31:f6:fc:33:
                    79:af:fc:44:aa:ba:da:14:47:b2:6f:b0:bd:f1:4c:
                    7d:8b:ee:11:7d:29:59:01:c3:fb:c4:7c:91:2d:4b:
                    24:78:58:a8:96:bb:5b:c3:aa:8d:f8:7c:69:f9:cb:
                    89:b5:a1:c8:2e:2d:19:cd:37:10:35:a6:a8:02:d0:
                    d1:ce:f2:f2:37:f6:31:ea:4d:f0:9e:30:0c:3d:af:
                    a9:e1:c5:37:8e:6e:b9:1d:1e:d9:c6:76:82:dc:f9:
                    2d:58:c7:6f:8e:31:76:3d:e2:fb:7b:fa:ee:44:bb:
                    4f:56:c7:1b:b4:82:52:9e:1d:e3:c1:75:e1:ba:79:
                    89:2d:49:15:3e:c8:87:b1:6b:a7:19:71:bf:26:af:
                    0a:a0:15:53:08:90:40:e7:fc:09:c9:b9:5f:47:43:
                    93:8e:92:df:fb:e0:3e:be:1f:2f:3d:fc:57:d1:19:
                    d5:5b:e2:98:00:91:b3:bf:a2:fa:7f:f9:e4:82:87:
                    20:7c:a6:93:7c:2e:9d:12:c4:aa:71:59:e7:af:15:
                    bf:2c:92:57:9b:33:39:66:a0:eb:e8:4c:32:16:ff:
                    1e:7d:fd:c7:6f:16:54:6a:08:88:4a:66:7c:93:bc:
                    40:d3:21:7d:50:35:97:70:53:27:b5:fe:0b:1b:11:
                    84:1a:5a:4b:1c:f6:02:7b:3e:3c:67:28:69:5b:11:
                    a2:c2:df:1d:7f:49:13:de:cf:3c:28:db:55:59:a9:
                    a2:fe:14:08:db:e5:22:96:53:e2:df:2e:f8:14:89:
                    85:9f:26:fd:27:3d:52:01:18:21:4f:b3:54:bf:de:
                    18:cc:5c:39:79:9d:b4:f4:c2:49:40:11:1b:01:f5:
                    30:a0:da:3b:25:a0:2f:1c:bc:f0:e5:58:8f:db:a0:
                    dc:07:f3:f4:ff:f2:df:22:60:e7:bb:ce:c7:74:2e:
                    88:4d:5f:7e:82:a9:2d:80:b1:55:2b:43:de:65:85:
                    b8:14:e8:a3:31:aa:88:aa:f7:e1:1e:7b:1f:42:95:
                    bc:f4:24:1f:0b:3e:8e:1c:5c:5a:78:0d:ab:87:ea:
                    9a:ec:7f:45:12:af:0c:36:6d:22:f2:4b:07:6e:74:
                    eb:85:19:8a:c9:ae:12:0e:4a:76:52:04:d5:af:8c:
                    9c:91:21:f8:79:a1:7d:24:9d:28:a0:41:4d:17:b6:
                    c9:ca:c8:ab:6f:f2:df:5f:3c:95:be:21:33:65:9d:
                    35:3a:0d:f1:33:a7:f4:5b:57:fc:e1:95:e6:9b:07:
                    63:b2:f1:97:aa:50:99:3f:09:0c:7f:f3:01:77:a4:
                    1e:59:d0:09:52:19:2b:f0:93:43:88:dd:6f:bd:5a:
                    b2:0e:db
                Exponent: 65537 (0x10001)
    Signature Algorithm: sha1WithRSAEncryption
        1a:49:83:6a:0e:a2:d9:5a:ff:1b:aa:1f:88:4b:fa:93:49:8e:
        0e:13:75:76:8c:ed:69:30:88:c9:66:6f:d7:f2:37:44:67:aa:
        20:60:5f:b9:02:ff:b1:05:ee:78:76:48:33:1a:6c:49:e4:61:
        c4:61:0e:4d:6e:18:0d:4a:62:a7:9a:8c:c1:78:56:49:27:ad:
        e9:f9:ab:47:9e:38:ee:a9:8f:a5:35:51:c5:77:53:9c:23:43:
        96:4a:3e:df:3b:bc:15:21:5b:9d:c0:31:c4:0d:4b:6e:44:70:
        fa:36:8f:90:4f:8f:3f:5a:13:2b:a8:43:5d:78:79:9c:86:a1:
        06:f5:11:61:36:5d:bb:03:c6:04:91:f2:c0:96:07:53:d7:7c:
        99:08:ea:9e:ec:47:3e:0b:a4:8a:91:9a:54:e8:e0:1c:e1:90:
        6d:43:2c:66:21:77:8f:94:a3:93:6c:3b:e8:1a:b9:2a:29:36:
        16:f1:e5:7c:82:f8:b0:8d:e1:43:86:75:48:6f:01:6c:44:22:
        a8:2c:68:e7:8b:df:fd:d4:4e:7b:65:f8:1b:ca:d1:db:a8:28:
        16:62:81:bd:be:7a:ca:32:9f:95:f5:25:00:ba:06:ea:cb:59:
        c5:1e:29:67:d3:9c:1e:d9:a7:f5:f3:2a:12:45:f3:dc:1c:ca:
        e7:dd:b0:33:a1:83:11:b8:43:b7:37:58:d4:a4:0c:6c:a6:6d:
        68:ee:41:df:9e:8c:dd:16:0b:c8:07:4d:91:d4:08:df:f2:2b:
        23:17:19:c2:3e:d8:92:57:92:13:7e:6e:09:e5:8b:19:1f:17:
        13:4a:55:1b:df:27:48:86:2b:4a:99:ce:a0:50:df:e6:b7:47:
        17:1f:04:31:e1:ac:79:66:08:7e:4d:1b:af:0c:a9:c7:e1:ac:
        15:b5:b6:57:2d:b4:c5:e9:5f:77:37:02:45:10:5b:d5:5d:3e:
        5d:b5:a5:81:f8:10:25:ee:72:02:c6:88:20:d8:f4:46:77:75:
        3a:04:69:96:84:a4:1b:d5:84:99:fe:90:d2:88:59:56:0b:02:
        0b:d5:dc:13:36:77:c0:64:c4:a6:98:ba:36:e5:71:67:a0:c0:
        0a:d5:01:73:37:d2:ba:6d:56:c3:86:04:bc:9f:ae:22:2b:cb:
        23:e1:5d:62:90:46:e4:2e:64:b4:03:78:67:63:38:61:d7:a6:
        e8:89:b9:d7:ba:63:26:4a:67:2d:72:d9:c3:ae:6f:5e:3c:00:
        e1:92:7b:b9:52:8e:86:57:41:35:3c:eb:ce:a6:c7:ea:0b:4a:
        2f:5c:5c:99:49:b1:46:0e:48:c3:b7:4b:49:ee:9f:6a:e7:38:
        1f:23:74:bc:35:59:d4:d2
-----BEGIN CERTIFICATE-----
MIIFSTCCAzECAQIwDQYJKoZIhvcNAQEFBQAwXzELMAkGA1UEBhMCQ0gxEjAQBgNV
BAgTCVN0LkdhbGxlbjEYMBYGA1UEAxMPZmxvdy5leGFtcGxlLmNoMSIwIAYJKoZI
hvcNAQkBFhNtYW5mcmVkQG1vcmduZXIuY29tMB4XDTEwMTEwNzIxMTYyNFoXDTMw
MTEwMjIxMTYyNFowdjELMAkGA1UEBhMCQ0gxEjAQBgNVBAgTCVN0LkdhbGxlbjEv
MC0GA1UEAxMmZmxvdy5leGFtcGxlLmNoIGludGVybWVkaWF0ZSBjbGllbnQgQ0Ex
IjAgBgkqhkiG9w0BCQEWE21hbmZyZWRAbW9yZ25lci5jb20wggIiMA0GCSqGSIb3
DQEBAQUAA4ICDwAwggIKAoICAQDwOiGFte6mwjJwMfb8M3mv/ESqutoUR7JvsL3x
TH2L7hF9KVkBw/vEfJEtSyR4WKiWu1vDqo34fGn5y4m1ocguLRnNNxA1pqgC0NHO
8vI39jHqTfCeMAw9r6nhxTeObrkdHtnGdoLc+S1Yx2+OMXY94vt7+u5Eu09Wxxu0
glKeHePBdeG6eYktSRU+yIexa6cZcb8mrwqgFVMIkEDn/AnJuV9HQ5OOkt/74D6+
Hy89/FfRGdVb4pgAkbO/ovp/+eSChyB8ppN8Lp0SxKpxWeevFb8sklebMzlmoOvo
TDIW/x59/cdvFlRqCIhKZnyTvEDTIX1QNZdwUye1/gsbEYQaWksc9gJ7PjxnKGlb
EaLC3x1/SRPezzwo21VZqaL+FAjb5SKWU+LfLvgUiYWfJv0nPVIBGCFPs1S/3hjM
XDl5nbT0wklAERsB9TCg2jsloC8cvPDlWI/boNwH8/T/8t8iYOe7zsd0LohNX36C
qS2AsVUrQ95lhbgU6KMxqoiq9+Eeex9Clbz0JB8LPo4cXFp4DauH6prsf0USrww2
bSLySwdudOuFGYrJrhIOSnZSBNWvjJyRIfh5oX0knSigQU0XtsnKyKtv8t9fPJW+
ITNlnTU6DfEzp/RbV/zhleabB2Oy8ZeqUJk/CQx/8wF3pB5Z0AlSGSvwk0OI3W+9
WrIO2wIDAQABMA0GCSqGSIb3DQEBBQUAA4ICAQAaSYNqDqLZWv8bqh+IS/qTSY4O
E3V2jO1pMIjJZm/X8jdEZ6ogYF+5Av+xBe54dkgzGmxJ5GHEYQ5NbhgNSmKnmozB
eFZJJ63p+atHnjjuqY+lNVHFd1OcI0OWSj7fO7wVIVudwDHEDUtuRHD6No+QT48/
WhMrqENdeHmchqEG9RFhNl27A8YEkfLAlgdT13yZCOqe7Ec+C6SKkZpU6OAc4ZBt
QyxmIXePlKOTbDvoGrkqKTYW8eV8gviwjeFDhnVIbwFsRCKoLGjni9/91E57Zfgb
ytHbqCgWYoG9vnrKMp+V9SUAugbqy1nFHiln05we2af18yoSRfPcHMrn3bAzoYMR
uEO3N1jUpAxspm1o7kHfnozdFgvIB02R1Ajf8isjFxnCPtiSV5ITfm4J5YsZHxcT
SlUb3ydIhitKmc6gUN/mt0cXHwQx4ax5Zgh+TRuvDKnH4awVtbZXLbTF6V93NwJF
EFvVXT5dtaWB+BAl7nICxogg2PRGd3U6BGmWhKQb1YSZ/pDSiFlWCwIL1dwTNnfA
ZMSmmLo25XFnoMAK1QFzN9K6bVbDhgS8n64iK8sj4V1ikEbkLmS0A3hnYzhh16bo
ibnXumMmSmctctnDrm9ePADhknu5Uo6GV0E1POvOpsfqC0ovXFyZSbFGDkjDt0tJ
7p9q5zgfI3S8NVnU0g==
-----END CERTIFICATE-----
